
a.out:     file format elf64-littleriscv


Disassembly of section .text:

0000000080000000 <_start>:
    80000000:	10000117          	auipc	sp,0x10000
    80000004:	ff810113          	addi	sp,sp,-8 # 8ffffff8 <_MEM_END>
    80000008:	00000597          	auipc	a1,0x0
    8000000c:	01458593          	addi	a1,a1,20 # 8000001c <_trap>
    80000010:	30559073          	csrw	mtvec,a1
    80000014:	03e000ef          	jal	ra,80000052 <main>

0000000080000018 <_end>:
    80000018:	0000006f          	j	80000018 <_end>

000000008000001c <_trap>:
    8000001c:	0000006f          	j	8000001c <_trap>

0000000080000020 <success>:
    80000020:	1141                	addi	sp,sp,-16
    80000022:	e406                	sd	ra,8(sp)
    80000024:	e022                	sd	s0,0(sp)
    80000026:	0800                	addi	s0,sp,16

0000000080000028 <.LBB0_2>:
    80000028:	00001517          	auipc	a0,0x1
    8000002c:	be850513          	addi	a0,a0,-1048 # 80000c10 <uart_base>
    80000030:	610c                	ld	a1,0(a0)
    80000032:	07300513          	li	a0,115
    80000036:	00a58023          	sb	a0,0(a1)
    8000003a:	0040006f          	j	8000003e <.LBB0_2+0x16>
    8000003e:	0000006f          	j	8000003e <.LBB0_2+0x16>

0000000080000042 <fail>:
    80000042:	1141                	addi	sp,sp,-16
    80000044:	e406                	sd	ra,8(sp)
    80000046:	e022                	sd	s0,0(sp)
    80000048:	0800                	addi	s0,sp,16
    8000004a:	0040006f          	j	8000004e <fail+0xc>
    8000004e:	0000006f          	j	8000004e <fail+0xc>

0000000080000052 <main>:
    80000052:	7169                	addi	sp,sp,-304
    80000054:	f606                	sd	ra,296(sp)
    80000056:	f222                	sd	s0,288(sp)
    80000058:	1a00                	addi	s0,sp,304
    8000005a:	4501                	li	a0,0
    8000005c:	eca43c23          	sd	a0,-296(s0)
    80000060:	fea42623          	sw	a0,-20(s0)

0000000080000064 <.LBB2_35>:
    80000064:	00001517          	auipc	a0,0x1
    80000068:	b9450513          	addi	a0,a0,-1132 # 80000bf8 <vect_mult>
    8000006c:	600015b7          	lui	a1,0x60001
    80000070:	0586                	slli	a1,a1,0x1
    80000072:	e10c                	sd	a1,0(a0)
    80000074:	00000097          	auipc	ra,0x0
    80000078:	3de080e7          	jalr	990(ra) # 80000452 <XVect_mult_IsReady>
    8000007c:	ed843583          	ld	a1,-296(s0)
    80000080:	00b51963          	bne	a0,a1,80000092 <.LBB2_35+0x2e>
    80000084:	0040006f          	j	80000088 <.LBB2_35+0x24>
    80000088:	4509                	li	a0,2
    8000008a:	fea42623          	sw	a0,-20(s0)
    8000008e:	3300006f          	j	800003be <.LBB2_40+0xac>
    80000092:	4529                	li	a0,10
    80000094:	fea42223          	sw	a0,-28(s0)
    80000098:	fe442583          	lw	a1,-28(s0)

000000008000009c <.LBB2_36>:
    8000009c:	00001517          	auipc	a0,0x1
    800000a0:	b5c50513          	addi	a0,a0,-1188 # 80000bf8 <vect_mult>
    800000a4:	eca43823          	sd	a0,-304(s0)
    800000a8:	00000097          	auipc	ra,0x0
    800000ac:	414080e7          	jalr	1044(ra) # 800004bc <XVect_mult_Set_size>
    800000b0:	ed043503          	ld	a0,-304(s0)
    800000b4:	000905b7          	lui	a1,0x90
    800000b8:	0015861b          	addiw	a2,a1,1
    800000bc:	0632                	slli	a2,a2,0xc
    800000be:	fcc43c23          	sd	a2,-40(s0)
    800000c2:	48001637          	lui	a2,0x48001
    800000c6:	0606                	slli	a2,a2,0x1
    800000c8:	fcc43823          	sd	a2,-48(s0)
    800000cc:	258d                	addiw	a1,a1,3
    800000ce:	05b2                	slli	a1,a1,0xc
    800000d0:	fcb43423          	sd	a1,-56(s0)
    800000d4:	6110                	ld	a2,0(a0)
    800000d6:	4581                	li	a1,0
    800000d8:	ce4c                	sw	a1,28(a2)
    800000da:	6110                	ld	a2,0(a0)
    800000dc:	d60c                	sw	a1,40(a2)
    800000de:	6110                	ld	a2,0(a0)
    800000e0:	da4c                	sw	a1,52(a2)
    800000e2:	fd843603          	ld	a2,-40(s0)
    800000e6:	6114                	ld	a3,0(a0)
    800000e8:	ce90                	sw	a2,24(a3)
    800000ea:	fd043603          	ld	a2,-48(s0)
    800000ee:	6114                	ld	a3,0(a0)
    800000f0:	d2d0                	sw	a2,36(a3)
    800000f2:	fc843603          	ld	a2,-56(s0)
    800000f6:	6114                	ld	a3,0(a0)
    800000f8:	da90                	sw	a2,48(a3)
    800000fa:	6110                	ld	a2,0(a0)
    800000fc:	01866603          	lwu	a2,24(a2) # 48001018 <_start-0x37ffefe8>
    80000100:	fcc43023          	sd	a2,-64(s0)
    80000104:	6108                	ld	a0,0(a0)
    80000106:	01c56503          	lwu	a0,28(a0)
    8000010a:	faa43c23          	sd	a0,-72(s0)
    8000010e:	fc043503          	ld	a0,-64(s0)
    80000112:	fb843603          	ld	a2,-72(s0)
    80000116:	1602                	slli	a2,a2,0x20
    80000118:	8d51                	or	a0,a0,a2
    8000011a:	faa43823          	sd	a0,-80(s0)
    8000011e:	fb843503          	ld	a0,-72(s0)
    80000122:	00b50963          	beq	a0,a1,80000134 <.LBB2_36+0x98>
    80000126:	0040006f          	j	8000012a <.LBB2_36+0x8e>
    8000012a:	4505                	li	a0,1
    8000012c:	fea42623          	sw	a0,-20(s0)
    80000130:	28e0006f          	j	800003be <.LBB2_40+0xac>
    80000134:	fd843503          	ld	a0,-40(s0)
    80000138:	fc043583          	ld	a1,-64(s0)
    8000013c:	00b50963          	beq	a0,a1,8000014e <.LBB2_36+0xb2>
    80000140:	0040006f          	j	80000144 <.LBB2_36+0xa8>
    80000144:	4505                	li	a0,1
    80000146:	fea42623          	sw	a0,-20(s0)
    8000014a:	2740006f          	j	800003be <.LBB2_40+0xac>
    8000014e:	fd843503          	ld	a0,-40(s0)
    80000152:	fb043583          	ld	a1,-80(s0)
    80000156:	00b50963          	beq	a0,a1,80000168 <.LBB2_37>
    8000015a:	0040006f          	j	8000015e <.LBB2_36+0xc2>
    8000015e:	4505                	li	a0,1
    80000160:	fea42623          	sw	a0,-20(s0)
    80000164:	25a0006f          	j	800003be <.LBB2_40+0xac>

0000000080000168 <.LBB2_37>:
    80000168:	00001517          	auipc	a0,0x1
    8000016c:	a9050513          	addi	a0,a0,-1392 # 80000bf8 <vect_mult>
    80000170:	610c                	ld	a1,0(a0)
    80000172:	0245e583          	lwu	a1,36(a1) # 90024 <_start-0x7ff6ffdc>
    80000176:	fab43423          	sd	a1,-88(s0)
    8000017a:	6108                	ld	a0,0(a0)
    8000017c:	02856503          	lwu	a0,40(a0)
    80000180:	faa43023          	sd	a0,-96(s0)
    80000184:	fa843503          	ld	a0,-88(s0)
    80000188:	fa043583          	ld	a1,-96(s0)
    8000018c:	1582                	slli	a1,a1,0x20
    8000018e:	8d4d                	or	a0,a0,a1
    80000190:	f8a43c23          	sd	a0,-104(s0)
    80000194:	fa043503          	ld	a0,-96(s0)
    80000198:	4581                	li	a1,0
    8000019a:	00b50963          	beq	a0,a1,800001ac <.LBB2_37+0x44>
    8000019e:	0040006f          	j	800001a2 <.LBB2_37+0x3a>
    800001a2:	4509                	li	a0,2
    800001a4:	fea42623          	sw	a0,-20(s0)
    800001a8:	2160006f          	j	800003be <.LBB2_40+0xac>
    800001ac:	fd043503          	ld	a0,-48(s0)
    800001b0:	fa843583          	ld	a1,-88(s0)
    800001b4:	00b50963          	beq	a0,a1,800001c6 <.LBB2_37+0x5e>
    800001b8:	0040006f          	j	800001bc <.LBB2_37+0x54>
    800001bc:	4509                	li	a0,2
    800001be:	fea42623          	sw	a0,-20(s0)
    800001c2:	1fc0006f          	j	800003be <.LBB2_40+0xac>
    800001c6:	fd043503          	ld	a0,-48(s0)
    800001ca:	f9843583          	ld	a1,-104(s0)
    800001ce:	00b50963          	beq	a0,a1,800001e0 <.LBB2_38>
    800001d2:	0040006f          	j	800001d6 <.LBB2_37+0x6e>
    800001d6:	4509                	li	a0,2
    800001d8:	fea42623          	sw	a0,-20(s0)
    800001dc:	1e20006f          	j	800003be <.LBB2_40+0xac>

00000000800001e0 <.LBB2_38>:
    800001e0:	00001517          	auipc	a0,0x1
    800001e4:	a1850513          	addi	a0,a0,-1512 # 80000bf8 <vect_mult>
    800001e8:	610c                	ld	a1,0(a0)
    800001ea:	0305e583          	lwu	a1,48(a1)
    800001ee:	f8b43823          	sd	a1,-112(s0)
    800001f2:	6108                	ld	a0,0(a0)
    800001f4:	03456503          	lwu	a0,52(a0)
    800001f8:	f8a43423          	sd	a0,-120(s0)
    800001fc:	f9043503          	ld	a0,-112(s0)
    80000200:	f8843583          	ld	a1,-120(s0)
    80000204:	1582                	slli	a1,a1,0x20
    80000206:	8d4d                	or	a0,a0,a1
    80000208:	f8a43023          	sd	a0,-128(s0)
    8000020c:	f8843503          	ld	a0,-120(s0)
    80000210:	4581                	li	a1,0
    80000212:	00b50963          	beq	a0,a1,80000224 <.LBB2_38+0x44>
    80000216:	0040006f          	j	8000021a <.LBB2_38+0x3a>
    8000021a:	450d                	li	a0,3
    8000021c:	fea42623          	sw	a0,-20(s0)
    80000220:	19e0006f          	j	800003be <.LBB2_40+0xac>
    80000224:	fc843503          	ld	a0,-56(s0)
    80000228:	f9043583          	ld	a1,-112(s0)
    8000022c:	00b50963          	beq	a0,a1,8000023e <.LBB2_38+0x5e>
    80000230:	0040006f          	j	80000234 <.LBB2_38+0x54>
    80000234:	450d                	li	a0,3
    80000236:	fea42623          	sw	a0,-20(s0)
    8000023a:	1840006f          	j	800003be <.LBB2_40+0xac>
    8000023e:	fc843503          	ld	a0,-56(s0)
    80000242:	f8043583          	ld	a1,-128(s0)
    80000246:	00b50963          	beq	a0,a1,80000258 <.LBB2_38+0x78>
    8000024a:	0040006f          	j	8000024e <.LBB2_38+0x6e>
    8000024e:	450d                	li	a0,3
    80000250:	fea42623          	sw	a0,-20(s0)
    80000254:	16a0006f          	j	800003be <.LBB2_40+0xac>
    80000258:	fd843503          	ld	a0,-40(s0)
    8000025c:	f6a43c23          	sd	a0,-136(s0)
    80000260:	fd043503          	ld	a0,-48(s0)
    80000264:	f6a43823          	sd	a0,-144(s0)
    80000268:	fc843503          	ld	a0,-56(s0)
    8000026c:	f6a43423          	sd	a0,-152(s0)
    80000270:	4501                	li	a0,0
    80000272:	eea42623          	sw	a0,-276(s0)
    80000276:	0040006f          	j	8000027a <.LBB2_38+0x9a>
    8000027a:	eec42583          	lw	a1,-276(s0)
    8000027e:	4525                	li	a0,9
    80000280:	06b54f63          	blt	a0,a1,800002fe <.LBB2_39>
    80000284:	0040006f          	j	80000288 <.LBB2_38+0xa8>
    80000288:	eec42503          	lw	a0,-276(s0)
    8000028c:	00251613          	slli	a2,a0,0x2
    80000290:	f4040593          	addi	a1,s0,-192
    80000294:	95b2                	add	a1,a1,a2
    80000296:	c188                	sw	a0,0(a1)
    80000298:	eec42503          	lw	a0,-276(s0)
    8000029c:	00251613          	slli	a2,a0,0x2
    800002a0:	f1840593          	addi	a1,s0,-232
    800002a4:	95b2                	add	a1,a1,a2
    800002a6:	c188                	sw	a0,0(a1)
    800002a8:	eec42583          	lw	a1,-276(s0)
    800002ac:	02b5853b          	mulw	a0,a1,a1
    800002b0:	00259613          	slli	a2,a1,0x2
    800002b4:	ef040593          	addi	a1,s0,-272
    800002b8:	95b2                	add	a1,a1,a2
    800002ba:	c188                	sw	a0,0(a1)
    800002bc:	f7843583          	ld	a1,-136(s0)
    800002c0:	eec42503          	lw	a0,-276(s0)
    800002c4:	00251613          	slli	a2,a0,0x2
    800002c8:	95b2                	add	a1,a1,a2
    800002ca:	c188                	sw	a0,0(a1)
    800002cc:	f7043583          	ld	a1,-144(s0)
    800002d0:	eec42503          	lw	a0,-276(s0)
    800002d4:	00251613          	slli	a2,a0,0x2
    800002d8:	95b2                	add	a1,a1,a2
    800002da:	c188                	sw	a0,0(a1)
    800002dc:	f6843503          	ld	a0,-152(s0)
    800002e0:	eec42583          	lw	a1,-276(s0)
    800002e4:	058a                	slli	a1,a1,0x2
    800002e6:	95aa                	add	a1,a1,a0
    800002e8:	4501                	li	a0,0
    800002ea:	c188                	sw	a0,0(a1)
    800002ec:	0040006f          	j	800002f0 <.LBB2_38+0x110>
    800002f0:	eec42503          	lw	a0,-276(s0)
    800002f4:	2505                	addiw	a0,a0,1
    800002f6:	eea42623          	sw	a0,-276(s0)
    800002fa:	f81ff06f          	j	8000027a <.LBB2_38+0x9a>

00000000800002fe <.LBB2_39>:
    800002fe:	00001517          	auipc	a0,0x1
    80000302:	8fa50513          	addi	a0,a0,-1798 # 80000bf8 <vect_mult>
    80000306:	00000097          	auipc	ra,0x0
    8000030a:	0c6080e7          	jalr	198(ra) # 800003cc <XVect_mult_Start>
    8000030e:	0040006f          	j	80000312 <.LBB2_40>

0000000080000312 <.LBB2_40>:
    80000312:	00001517          	auipc	a0,0x1
    80000316:	8e650513          	addi	a0,a0,-1818 # 80000bf8 <vect_mult>
    8000031a:	00000097          	auipc	ra,0x0
    8000031e:	0e8080e7          	jalr	232(ra) # 80000402 <XVect_mult_IsDone>
    80000322:	4581                	li	a1,0
    80000324:	00b51663          	bne	a0,a1,80000330 <.LBB2_40+0x1e>
    80000328:	0040006f          	j	8000032c <.LBB2_40+0x1a>
    8000032c:	fe7ff06f          	j	80000312 <.LBB2_40>
    80000330:	4501                	li	a0,0
    80000332:	eea42423          	sw	a0,-280(s0)
    80000336:	eea42223          	sw	a0,-284(s0)
    8000033a:	0040006f          	j	8000033e <.LBB2_40+0x2c>
    8000033e:	ee442583          	lw	a1,-284(s0)
    80000342:	4525                	li	a0,9
    80000344:	04b54463          	blt	a0,a1,8000038c <.LBB2_40+0x7a>
    80000348:	0040006f          	j	8000034c <.LBB2_40+0x3a>
    8000034c:	f6843503          	ld	a0,-152(s0)
    80000350:	4148                	lw	a0,4(a0)
    80000352:	eea42023          	sw	a0,-288(s0)
    80000356:	ee042503          	lw	a0,-288(s0)
    8000035a:	ee442583          	lw	a1,-284(s0)
    8000035e:	00259613          	slli	a2,a1,0x2
    80000362:	ef040593          	addi	a1,s0,-272
    80000366:	95b2                	add	a1,a1,a2
    80000368:	418c                	lw	a1,0(a1)
    8000036a:	8d2d                	xor	a0,a0,a1
    8000036c:	00153593          	seqz	a1,a0
    80000370:	ee842503          	lw	a0,-280(s0)
    80000374:	9d2d                	addw	a0,a0,a1
    80000376:	eea42423          	sw	a0,-280(s0)
    8000037a:	0040006f          	j	8000037e <.LBB2_40+0x6c>
    8000037e:	ee442503          	lw	a0,-284(s0)
    80000382:	2505                	addiw	a0,a0,1
    80000384:	eea42223          	sw	a0,-284(s0)
    80000388:	fb7ff06f          	j	8000033e <.LBB2_40+0x2c>
    8000038c:	ee842503          	lw	a0,-280(s0)
    80000390:	4585                	li	a1,1
    80000392:	00b51d63          	bne	a0,a1,800003ac <.LBB2_40+0x9a>
    80000396:	0040006f          	j	8000039a <.LBB2_40+0x88>
    8000039a:	00000097          	auipc	ra,0x0
    8000039e:	c86080e7          	jalr	-890(ra) # 80000020 <success>
    800003a2:	4521                	li	a0,8
    800003a4:	fea42623          	sw	a0,-20(s0)
    800003a8:	0160006f          	j	800003be <.LBB2_40+0xac>
    800003ac:	00000097          	auipc	ra,0x0
    800003b0:	c96080e7          	jalr	-874(ra) # 80000042 <fail>
    800003b4:	4505                	li	a0,1
    800003b6:	fea42623          	sw	a0,-20(s0)
    800003ba:	0040006f          	j	800003be <.LBB2_40+0xac>
    800003be:	fec42503          	lw	a0,-20(s0)
    800003c2:	70b2                	ld	ra,296(sp)
    800003c4:	7412                	ld	s0,288(sp)
    800003c6:	6155                	addi	sp,sp,304
    800003c8:	8082                	ret
	...

00000000800003cc <XVect_mult_Start>:
    800003cc:	1101                	addi	sp,sp,-32
    800003ce:	ec06                	sd	ra,24(sp)
    800003d0:	e822                	sd	s0,16(sp)
    800003d2:	1000                	addi	s0,sp,32
    800003d4:	fea43423          	sd	a0,-24(s0)
    800003d8:	fe843503          	ld	a0,-24(s0)
    800003dc:	6108                	ld	a0,0(a0)
    800003de:	00056503          	lwu	a0,0(a0)
    800003e2:	08057513          	andi	a0,a0,128
    800003e6:	fea42223          	sw	a0,-28(s0)
    800003ea:	fe442503          	lw	a0,-28(s0)
    800003ee:	00156513          	ori	a0,a0,1
    800003f2:	fe843583          	ld	a1,-24(s0)
    800003f6:	618c                	ld	a1,0(a1)
    800003f8:	c188                	sw	a0,0(a1)
    800003fa:	60e2                	ld	ra,24(sp)
    800003fc:	6442                	ld	s0,16(sp)
    800003fe:	6105                	addi	sp,sp,32
    80000400:	8082                	ret

0000000080000402 <XVect_mult_IsDone>:
    80000402:	1101                	addi	sp,sp,-32
    80000404:	ec06                	sd	ra,24(sp)
    80000406:	e822                	sd	s0,16(sp)
    80000408:	1000                	addi	s0,sp,32
    8000040a:	fea43423          	sd	a0,-24(s0)
    8000040e:	fe843503          	ld	a0,-24(s0)
    80000412:	6108                	ld	a0,0(a0)
    80000414:	4108                	lw	a0,0(a0)
    80000416:	fea42223          	sw	a0,-28(s0)
    8000041a:	fe446503          	lwu	a0,-28(s0)
    8000041e:	8105                	srli	a0,a0,0x1
    80000420:	8905                	andi	a0,a0,1
    80000422:	60e2                	ld	ra,24(sp)
    80000424:	6442                	ld	s0,16(sp)
    80000426:	6105                	addi	sp,sp,32
    80000428:	8082                	ret

000000008000042a <XVect_mult_IsIdle>:
    8000042a:	1101                	addi	sp,sp,-32
    8000042c:	ec06                	sd	ra,24(sp)
    8000042e:	e822                	sd	s0,16(sp)
    80000430:	1000                	addi	s0,sp,32
    80000432:	fea43423          	sd	a0,-24(s0)
    80000436:	fe843503          	ld	a0,-24(s0)
    8000043a:	6108                	ld	a0,0(a0)
    8000043c:	4108                	lw	a0,0(a0)
    8000043e:	fea42223          	sw	a0,-28(s0)
    80000442:	fe446503          	lwu	a0,-28(s0)
    80000446:	8109                	srli	a0,a0,0x2
    80000448:	8905                	andi	a0,a0,1
    8000044a:	60e2                	ld	ra,24(sp)
    8000044c:	6442                	ld	s0,16(sp)
    8000044e:	6105                	addi	sp,sp,32
    80000450:	8082                	ret

0000000080000452 <XVect_mult_IsReady>:
    80000452:	1101                	addi	sp,sp,-32
    80000454:	ec06                	sd	ra,24(sp)
    80000456:	e822                	sd	s0,16(sp)
    80000458:	1000                	addi	s0,sp,32
    8000045a:	fea43423          	sd	a0,-24(s0)
    8000045e:	fe843503          	ld	a0,-24(s0)
    80000462:	6108                	ld	a0,0(a0)
    80000464:	00056503          	lwu	a0,0(a0)
    80000468:	fea43023          	sd	a0,-32(s0)
    8000046c:	fe044503          	lbu	a0,-32(s0)
    80000470:	8905                	andi	a0,a0,1
    80000472:	00153513          	seqz	a0,a0
    80000476:	60e2                	ld	ra,24(sp)
    80000478:	6442                	ld	s0,16(sp)
    8000047a:	6105                	addi	sp,sp,32
    8000047c:	8082                	ret

000000008000047e <XVect_mult_EnableAutoRestart>:
    8000047e:	1101                	addi	sp,sp,-32
    80000480:	ec06                	sd	ra,24(sp)
    80000482:	e822                	sd	s0,16(sp)
    80000484:	1000                	addi	s0,sp,32
    80000486:	fea43423          	sd	a0,-24(s0)
    8000048a:	fe843503          	ld	a0,-24(s0)
    8000048e:	610c                	ld	a1,0(a0)
    80000490:	08000513          	li	a0,128
    80000494:	c188                	sw	a0,0(a1)
    80000496:	60e2                	ld	ra,24(sp)
    80000498:	6442                	ld	s0,16(sp)
    8000049a:	6105                	addi	sp,sp,32
    8000049c:	8082                	ret

000000008000049e <XVect_mult_DisableAutoRestart>:
    8000049e:	1101                	addi	sp,sp,-32
    800004a0:	ec06                	sd	ra,24(sp)
    800004a2:	e822                	sd	s0,16(sp)
    800004a4:	1000                	addi	s0,sp,32
    800004a6:	fea43423          	sd	a0,-24(s0)
    800004aa:	fe843503          	ld	a0,-24(s0)
    800004ae:	610c                	ld	a1,0(a0)
    800004b0:	4501                	li	a0,0
    800004b2:	c188                	sw	a0,0(a1)
    800004b4:	60e2                	ld	ra,24(sp)
    800004b6:	6442                	ld	s0,16(sp)
    800004b8:	6105                	addi	sp,sp,32
    800004ba:	8082                	ret

00000000800004bc <XVect_mult_Set_size>:
    800004bc:	1101                	addi	sp,sp,-32
    800004be:	ec06                	sd	ra,24(sp)
    800004c0:	e822                	sd	s0,16(sp)
    800004c2:	1000                	addi	s0,sp,32
    800004c4:	fea43423          	sd	a0,-24(s0)
    800004c8:	feb42223          	sw	a1,-28(s0)
    800004cc:	fe442503          	lw	a0,-28(s0)
    800004d0:	fe843583          	ld	a1,-24(s0)
    800004d4:	618c                	ld	a1,0(a1)
    800004d6:	c988                	sw	a0,16(a1)
    800004d8:	60e2                	ld	ra,24(sp)
    800004da:	6442                	ld	s0,16(sp)
    800004dc:	6105                	addi	sp,sp,32
    800004de:	8082                	ret

00000000800004e0 <XVect_mult_Get_size>:
    800004e0:	1101                	addi	sp,sp,-32
    800004e2:	ec06                	sd	ra,24(sp)
    800004e4:	e822                	sd	s0,16(sp)
    800004e6:	1000                	addi	s0,sp,32
    800004e8:	fea43423          	sd	a0,-24(s0)
    800004ec:	fe843503          	ld	a0,-24(s0)
    800004f0:	6108                	ld	a0,0(a0)
    800004f2:	4908                	lw	a0,16(a0)
    800004f4:	fea42223          	sw	a0,-28(s0)
    800004f8:	fe442503          	lw	a0,-28(s0)
    800004fc:	60e2                	ld	ra,24(sp)
    800004fe:	6442                	ld	s0,16(sp)
    80000500:	6105                	addi	sp,sp,32
    80000502:	8082                	ret

0000000080000504 <XVect_mult_Set_a>:
    80000504:	1101                	addi	sp,sp,-32
    80000506:	ec06                	sd	ra,24(sp)
    80000508:	e822                	sd	s0,16(sp)
    8000050a:	1000                	addi	s0,sp,32
    8000050c:	fea43423          	sd	a0,-24(s0)
    80000510:	feb43023          	sd	a1,-32(s0)
    80000514:	fe043503          	ld	a0,-32(s0)
    80000518:	fe843583          	ld	a1,-24(s0)
    8000051c:	618c                	ld	a1,0(a1)
    8000051e:	cd88                	sw	a0,24(a1)
    80000520:	fe446503          	lwu	a0,-28(s0)
    80000524:	fe843583          	ld	a1,-24(s0)
    80000528:	618c                	ld	a1,0(a1)
    8000052a:	cdc8                	sw	a0,28(a1)
    8000052c:	60e2                	ld	ra,24(sp)
    8000052e:	6442                	ld	s0,16(sp)
    80000530:	6105                	addi	sp,sp,32
    80000532:	8082                	ret

0000000080000534 <XVect_mult_Get_a>:
    80000534:	1101                	addi	sp,sp,-32
    80000536:	ec06                	sd	ra,24(sp)
    80000538:	e822                	sd	s0,16(sp)
    8000053a:	1000                	addi	s0,sp,32
    8000053c:	fea43423          	sd	a0,-24(s0)
    80000540:	fe843503          	ld	a0,-24(s0)
    80000544:	6108                	ld	a0,0(a0)
    80000546:	01856503          	lwu	a0,24(a0)
    8000054a:	fea43023          	sd	a0,-32(s0)
    8000054e:	fe843503          	ld	a0,-24(s0)
    80000552:	6108                	ld	a0,0(a0)
    80000554:	4d48                	lw	a0,28(a0)
    80000556:	02051593          	slli	a1,a0,0x20
    8000055a:	fe043503          	ld	a0,-32(s0)
    8000055e:	952e                	add	a0,a0,a1
    80000560:	fea43023          	sd	a0,-32(s0)
    80000564:	fe043503          	ld	a0,-32(s0)
    80000568:	60e2                	ld	ra,24(sp)
    8000056a:	6442                	ld	s0,16(sp)
    8000056c:	6105                	addi	sp,sp,32
    8000056e:	8082                	ret

0000000080000570 <XVect_mult_Set_b>:
    80000570:	1101                	addi	sp,sp,-32
    80000572:	ec06                	sd	ra,24(sp)
    80000574:	e822                	sd	s0,16(sp)
    80000576:	1000                	addi	s0,sp,32
    80000578:	fea43423          	sd	a0,-24(s0)
    8000057c:	feb43023          	sd	a1,-32(s0)
    80000580:	fe043503          	ld	a0,-32(s0)
    80000584:	fe843583          	ld	a1,-24(s0)
    80000588:	618c                	ld	a1,0(a1)
    8000058a:	d1c8                	sw	a0,36(a1)
    8000058c:	fe446503          	lwu	a0,-28(s0)
    80000590:	fe843583          	ld	a1,-24(s0)
    80000594:	618c                	ld	a1,0(a1)
    80000596:	d588                	sw	a0,40(a1)
    80000598:	60e2                	ld	ra,24(sp)
    8000059a:	6442                	ld	s0,16(sp)
    8000059c:	6105                	addi	sp,sp,32
    8000059e:	8082                	ret

00000000800005a0 <XVect_mult_Get_b>:
    800005a0:	1101                	addi	sp,sp,-32
    800005a2:	ec06                	sd	ra,24(sp)
    800005a4:	e822                	sd	s0,16(sp)
    800005a6:	1000                	addi	s0,sp,32
    800005a8:	fea43423          	sd	a0,-24(s0)
    800005ac:	fe843503          	ld	a0,-24(s0)
    800005b0:	6108                	ld	a0,0(a0)
    800005b2:	02456503          	lwu	a0,36(a0)
    800005b6:	fea43023          	sd	a0,-32(s0)
    800005ba:	fe843503          	ld	a0,-24(s0)
    800005be:	6108                	ld	a0,0(a0)
    800005c0:	5508                	lw	a0,40(a0)
    800005c2:	02051593          	slli	a1,a0,0x20
    800005c6:	fe043503          	ld	a0,-32(s0)
    800005ca:	952e                	add	a0,a0,a1
    800005cc:	fea43023          	sd	a0,-32(s0)
    800005d0:	fe043503          	ld	a0,-32(s0)
    800005d4:	60e2                	ld	ra,24(sp)
    800005d6:	6442                	ld	s0,16(sp)
    800005d8:	6105                	addi	sp,sp,32
    800005da:	8082                	ret

00000000800005dc <XVect_mult_Set_c>:
    800005dc:	1101                	addi	sp,sp,-32
    800005de:	ec06                	sd	ra,24(sp)
    800005e0:	e822                	sd	s0,16(sp)
    800005e2:	1000                	addi	s0,sp,32
    800005e4:	fea43423          	sd	a0,-24(s0)
    800005e8:	feb43023          	sd	a1,-32(s0)
    800005ec:	fe043503          	ld	a0,-32(s0)
    800005f0:	fe843583          	ld	a1,-24(s0)
    800005f4:	618c                	ld	a1,0(a1)
    800005f6:	d988                	sw	a0,48(a1)
    800005f8:	fe446503          	lwu	a0,-28(s0)
    800005fc:	fe843583          	ld	a1,-24(s0)
    80000600:	618c                	ld	a1,0(a1)
    80000602:	d9c8                	sw	a0,52(a1)
    80000604:	60e2                	ld	ra,24(sp)
    80000606:	6442                	ld	s0,16(sp)
    80000608:	6105                	addi	sp,sp,32
    8000060a:	8082                	ret

000000008000060c <XVect_mult_Get_c>:
    8000060c:	1101                	addi	sp,sp,-32
    8000060e:	ec06                	sd	ra,24(sp)
    80000610:	e822                	sd	s0,16(sp)
    80000612:	1000                	addi	s0,sp,32
    80000614:	fea43423          	sd	a0,-24(s0)
    80000618:	fe843503          	ld	a0,-24(s0)
    8000061c:	6108                	ld	a0,0(a0)
    8000061e:	03056503          	lwu	a0,48(a0)
    80000622:	fea43023          	sd	a0,-32(s0)
    80000626:	fe843503          	ld	a0,-24(s0)
    8000062a:	6108                	ld	a0,0(a0)
    8000062c:	5948                	lw	a0,52(a0)
    8000062e:	02051593          	slli	a1,a0,0x20
    80000632:	fe043503          	ld	a0,-32(s0)
    80000636:	952e                	add	a0,a0,a1
    80000638:	fea43023          	sd	a0,-32(s0)
    8000063c:	fe043503          	ld	a0,-32(s0)
    80000640:	60e2                	ld	ra,24(sp)
    80000642:	6442                	ld	s0,16(sp)
    80000644:	6105                	addi	sp,sp,32
    80000646:	8082                	ret

0000000080000648 <XVect_mult_InterruptGlobalEnable>:
    80000648:	1101                	addi	sp,sp,-32
    8000064a:	ec06                	sd	ra,24(sp)
    8000064c:	e822                	sd	s0,16(sp)
    8000064e:	1000                	addi	s0,sp,32
    80000650:	fea43423          	sd	a0,-24(s0)
    80000654:	fe843503          	ld	a0,-24(s0)
    80000658:	610c                	ld	a1,0(a0)
    8000065a:	4505                	li	a0,1
    8000065c:	c1c8                	sw	a0,4(a1)
    8000065e:	60e2                	ld	ra,24(sp)
    80000660:	6442                	ld	s0,16(sp)
    80000662:	6105                	addi	sp,sp,32
    80000664:	8082                	ret

0000000080000666 <XVect_mult_InterruptGlobalDisable>:
    80000666:	1101                	addi	sp,sp,-32
    80000668:	ec06                	sd	ra,24(sp)
    8000066a:	e822                	sd	s0,16(sp)
    8000066c:	1000                	addi	s0,sp,32
    8000066e:	fea43423          	sd	a0,-24(s0)
    80000672:	fe843503          	ld	a0,-24(s0)
    80000676:	610c                	ld	a1,0(a0)
    80000678:	4501                	li	a0,0
    8000067a:	c1c8                	sw	a0,4(a1)
    8000067c:	60e2                	ld	ra,24(sp)
    8000067e:	6442                	ld	s0,16(sp)
    80000680:	6105                	addi	sp,sp,32
    80000682:	8082                	ret

0000000080000684 <XVect_mult_InterruptEnable>:
    80000684:	1101                	addi	sp,sp,-32
    80000686:	ec06                	sd	ra,24(sp)
    80000688:	e822                	sd	s0,16(sp)
    8000068a:	1000                	addi	s0,sp,32
    8000068c:	fea43423          	sd	a0,-24(s0)
    80000690:	feb42223          	sw	a1,-28(s0)
    80000694:	fe843503          	ld	a0,-24(s0)
    80000698:	6108                	ld	a0,0(a0)
    8000069a:	4508                	lw	a0,8(a0)
    8000069c:	fea42023          	sw	a0,-32(s0)
    800006a0:	fe042503          	lw	a0,-32(s0)
    800006a4:	fe442583          	lw	a1,-28(s0)
    800006a8:	8d4d                	or	a0,a0,a1
    800006aa:	fe843583          	ld	a1,-24(s0)
    800006ae:	618c                	ld	a1,0(a1)
    800006b0:	c588                	sw	a0,8(a1)
    800006b2:	60e2                	ld	ra,24(sp)
    800006b4:	6442                	ld	s0,16(sp)
    800006b6:	6105                	addi	sp,sp,32
    800006b8:	8082                	ret

00000000800006ba <XVect_mult_InterruptDisable>:
    800006ba:	1101                	addi	sp,sp,-32
    800006bc:	ec06                	sd	ra,24(sp)
    800006be:	e822                	sd	s0,16(sp)
    800006c0:	1000                	addi	s0,sp,32
    800006c2:	fea43423          	sd	a0,-24(s0)
    800006c6:	feb42223          	sw	a1,-28(s0)
    800006ca:	fe843503          	ld	a0,-24(s0)
    800006ce:	6108                	ld	a0,0(a0)
    800006d0:	4508                	lw	a0,8(a0)
    800006d2:	fea42023          	sw	a0,-32(s0)
    800006d6:	fe042503          	lw	a0,-32(s0)
    800006da:	fe442583          	lw	a1,-28(s0)
    800006de:	fff5c593          	not	a1,a1
    800006e2:	8d6d                	and	a0,a0,a1
    800006e4:	fe843583          	ld	a1,-24(s0)
    800006e8:	618c                	ld	a1,0(a1)
    800006ea:	c588                	sw	a0,8(a1)
    800006ec:	60e2                	ld	ra,24(sp)
    800006ee:	6442                	ld	s0,16(sp)
    800006f0:	6105                	addi	sp,sp,32
    800006f2:	8082                	ret

00000000800006f4 <XVect_mult_InterruptClear>:
    800006f4:	1101                	addi	sp,sp,-32
    800006f6:	ec06                	sd	ra,24(sp)
    800006f8:	e822                	sd	s0,16(sp)
    800006fa:	1000                	addi	s0,sp,32
    800006fc:	fea43423          	sd	a0,-24(s0)
    80000700:	feb42223          	sw	a1,-28(s0)
    80000704:	fe843583          	ld	a1,-24(s0)
    80000708:	fe442503          	lw	a0,-28(s0)
    8000070c:	618c                	ld	a1,0(a1)
    8000070e:	c5c8                	sw	a0,12(a1)
    80000710:	60e2                	ld	ra,24(sp)
    80000712:	6442                	ld	s0,16(sp)
    80000714:	6105                	addi	sp,sp,32
    80000716:	8082                	ret

0000000080000718 <XVect_mult_InterruptGetEnabled>:
    80000718:	1101                	addi	sp,sp,-32
    8000071a:	ec06                	sd	ra,24(sp)
    8000071c:	e822                	sd	s0,16(sp)
    8000071e:	1000                	addi	s0,sp,32
    80000720:	fea43423          	sd	a0,-24(s0)
    80000724:	fe843503          	ld	a0,-24(s0)
    80000728:	6108                	ld	a0,0(a0)
    8000072a:	4508                	lw	a0,8(a0)
    8000072c:	60e2                	ld	ra,24(sp)
    8000072e:	6442                	ld	s0,16(sp)
    80000730:	6105                	addi	sp,sp,32
    80000732:	8082                	ret

0000000080000734 <XVect_mult_InterruptGetStatus>:
    80000734:	1101                	addi	sp,sp,-32
    80000736:	ec06                	sd	ra,24(sp)
    80000738:	e822                	sd	s0,16(sp)
    8000073a:	1000                	addi	s0,sp,32
    8000073c:	fea43423          	sd	a0,-24(s0)
    80000740:	fe843503          	ld	a0,-24(s0)
    80000744:	6108                	ld	a0,0(a0)
    80000746:	4548                	lw	a0,12(a0)
    80000748:	60e2                	ld	ra,24(sp)
    8000074a:	6442                	ld	s0,16(sp)
    8000074c:	6105                	addi	sp,sp,32
    8000074e:	8082                	ret

0000000080000750 <XVect_mult_Initialize>:
    80000750:	1101                	addi	sp,sp,-32
    80000752:	ec06                	sd	ra,24(sp)
    80000754:	e822                	sd	s0,16(sp)
    80000756:	1000                	addi	s0,sp,32
    80000758:	fea43423          	sd	a0,-24(s0)
    8000075c:	feb43023          	sd	a1,-32(s0)
    80000760:	fe843583          	ld	a1,-24(s0)
    80000764:	60001537          	lui	a0,0x60001
    80000768:	0506                	slli	a0,a0,0x1
    8000076a:	e188                	sd	a0,0(a1)
    8000076c:	4501                	li	a0,0
    8000076e:	60e2                	ld	ra,24(sp)
    80000770:	6442                	ld	s0,16(sp)
    80000772:	6105                	addi	sp,sp,32
    80000774:	8082                	ret

0000000080000776 <XVect_mult_Release>:
    80000776:	1101                	addi	sp,sp,-32
    80000778:	ec06                	sd	ra,24(sp)
    8000077a:	e822                	sd	s0,16(sp)
    8000077c:	1000                	addi	s0,sp,32
    8000077e:	fea43423          	sd	a0,-24(s0)
    80000782:	4501                	li	a0,0
    80000784:	60e2                	ld	ra,24(sp)
    80000786:	6442                	ld	s0,16(sp)
    80000788:	6105                	addi	sp,sp,32
    8000078a:	8082                	ret
