
a.out:     file format elf64-littleriscv


Disassembly of section .text:

0000000080000000 <_start>:
    80000000:	10000117          	auipc	sp,0x10000
    80000004:	ff810113          	addi	sp,sp,-8 # 8ffffff8 <_MEM_END>
    80000008:	008000ef          	jal	ra,80000010 <main>

000000008000000c <_end>:
    8000000c:	0000006f          	j	8000000c <_end>

0000000080000010 <main>:
    80000010:	81010113          	addi	sp,sp,-2032
    80000014:	7e113423          	sd	ra,2024(sp)
    80000018:	7e813023          	sd	s0,2016(sp)
    8000001c:	7f010413          	addi	s0,sp,2032
    80000020:	6505                	lui	a0,0x1
    80000022:	7a05051b          	addiw	a0,a0,1952
    80000026:	40a10133          	sub	sp,sp,a0
    8000002a:	4501                	li	a0,0
    8000002c:	75f9                	lui	a1,0xffffe
    8000002e:	0805859b          	addiw	a1,a1,128
    80000032:	95a2                	add	a1,a1,s0
    80000034:	e188                	sd	a0,0(a1)
    80000036:	fea42223          	sw	a0,-28(s0)

000000008000003a <.LBB0_7>:
    8000003a:	00001517          	auipc	a0,0x1
    8000003e:	9f650513          	addi	a0,a0,-1546 # 80000a30 <vect_mult>
    80000042:	00000097          	auipc	ra,0x0
    80000046:	10c080e7          	jalr	268(ra) # 8000014e <hls_vect_mult_init>
    8000004a:	75f9                	lui	a1,0xffffe
    8000004c:	0805859b          	addiw	a1,a1,128
    80000050:	95a2                	add	a1,a1,s0
    80000052:	618c                	ld	a1,0(a1)
    80000054:	fea42023          	sw	a0,-32(s0)
    80000058:	fe042503          	lw	a0,-32(s0)
    8000005c:	00b50963          	beq	a0,a1,8000006e <.LBB0_8>
    80000060:	0040006f          	j	80000064 <.LBB0_7+0x2a>
    80000064:	557d                	li	a0,-1
    80000066:	fea42223          	sw	a0,-28(s0)
    8000006a:	0ca0006f          	j	80000134 <.LBB0_9+0x92>

000000008000006e <.LBB0_8>:
    8000006e:	00001517          	auipc	a0,0x1
    80000072:	9c250513          	addi	a0,a0,-1598 # 80000a30 <vect_mult>
    80000076:	00000097          	auipc	ra,0x0
    8000007a:	1f2080e7          	jalr	498(ra) # 80000268 <XVect_mult_IsReady>
    8000007e:	4581                	li	a1,0
    80000080:	00b50663          	beq	a0,a1,8000008c <.LBB0_8+0x1e>
    80000084:	0040006f          	j	80000088 <.LBB0_8+0x1a>
    80000088:	00e0006f          	j	80000096 <.LBB0_8+0x28>
    8000008c:	557d                	li	a0,-1
    8000008e:	fea42223          	sw	a0,-28(s0)
    80000092:	0a20006f          	j	80000134 <.LBB0_9+0x92>
    80000096:	06400513          	li	a0,100
    8000009a:	fca42e23          	sw	a0,-36(s0)
    8000009e:	fdc42583          	lw	a1,-36(s0)

00000000800000a2 <.LBB0_9>:
    800000a2:	00001517          	auipc	a0,0x1
    800000a6:	98e50513          	addi	a0,a0,-1650 # 80000a30 <vect_mult>
    800000aa:	7679                	lui	a2,0xffffe
    800000ac:	0786061b          	addiw	a2,a2,120
    800000b0:	9622                	add	a2,a2,s0
    800000b2:	e208                	sd	a0,0(a2)
    800000b4:	00000097          	auipc	ra,0x0
    800000b8:	21c080e7          	jalr	540(ra) # 800002d0 <XVect_mult_Set_size>
    800000bc:	7579                	lui	a0,0xffffe
    800000be:	0785051b          	addiw	a0,a0,120
    800000c2:	9522                	add	a0,a0,s0
    800000c4:	6108                	ld	a0,0(a0)
    800000c6:	75fd                	lui	a1,0xfffff
    800000c8:	03c5859b          	addiw	a1,a1,60
    800000cc:	95a2                	add	a1,a1,s0
    800000ce:	7679                	lui	a2,0xffffe
    800000d0:	0906061b          	addiw	a2,a2,144
    800000d4:	9622                	add	a2,a2,s0
    800000d6:	e20c                	sd	a1,0(a2)
    800000d8:	75f9                	lui	a1,0xffffe
    800000da:	09c5859b          	addiw	a1,a1,156
    800000de:	95a2                	add	a1,a1,s0
    800000e0:	7679                	lui	a2,0xffffe
    800000e2:	0886061b          	addiw	a2,a2,136
    800000e6:	9622                	add	a2,a2,s0
    800000e8:	e20c                	sd	a1,0(a2)
    800000ea:	75f9                	lui	a1,0xffffe
    800000ec:	0905859b          	addiw	a1,a1,144
    800000f0:	95a2                	add	a1,a1,s0
    800000f2:	618c                	ld	a1,0(a1)
    800000f4:	00000097          	auipc	ra,0x0
    800000f8:	224080e7          	jalr	548(ra) # 80000318 <XVect_mult_Set_a>
    800000fc:	7579                	lui	a0,0xffffe
    800000fe:	0785051b          	addiw	a0,a0,120
    80000102:	9522                	add	a0,a0,s0
    80000104:	6108                	ld	a0,0(a0)
    80000106:	75f9                	lui	a1,0xffffe
    80000108:	0885859b          	addiw	a1,a1,136
    8000010c:	95a2                	add	a1,a1,s0
    8000010e:	618c                	ld	a1,0(a1)
    80000110:	00000097          	auipc	ra,0x0
    80000114:	276080e7          	jalr	630(ra) # 80000386 <XVect_mult_Set_b>
    80000118:	7579                	lui	a0,0xffffe
    8000011a:	0785051b          	addiw	a0,a0,120
    8000011e:	9522                	add	a0,a0,s0
    80000120:	6108                	ld	a0,0(a0)
    80000122:	00000097          	auipc	ra,0x0
    80000126:	080080e7          	jalr	128(ra) # 800001a2 <hls_vect_mult_start>
    8000012a:	4521                	li	a0,8
    8000012c:	fea42223          	sw	a0,-28(s0)
    80000130:	0040006f          	j	80000134 <.LBB0_9+0x92>
    80000134:	fe442503          	lw	a0,-28(s0)
    80000138:	6585                	lui	a1,0x1
    8000013a:	7a05859b          	addiw	a1,a1,1952
    8000013e:	912e                	add	sp,sp,a1
    80000140:	7e813083          	ld	ra,2024(sp)
    80000144:	7e013403          	ld	s0,2016(sp)
    80000148:	7f010113          	addi	sp,sp,2032
    8000014c:	8082                	ret

000000008000014e <hls_vect_mult_init>:
    8000014e:	7179                	addi	sp,sp,-48
    80000150:	f406                	sd	ra,40(sp)
    80000152:	f022                	sd	s0,32(sp)
    80000154:	1800                	addi	s0,sp,48
    80000156:	fea43023          	sd	a0,-32(s0)
    8000015a:	fe043503          	ld	a0,-32(s0)

000000008000015e <.LBB1_4>:
    8000015e:	00000597          	auipc	a1,0x0
    80000162:	45658593          	addi	a1,a1,1110 # 800005b4 <XVect_mult_Release+0x16>
    80000166:	00000097          	auipc	ra,0x0
    8000016a:	412080e7          	jalr	1042(ra) # 80000578 <XVect_mult_Initialize>
    8000016e:	fca42e23          	sw	a0,-36(s0)
    80000172:	fdc42503          	lw	a0,-36(s0)
    80000176:	4581                	li	a1,0
    80000178:	00b50963          	beq	a0,a1,8000018a <.LBB1_4+0x2c>
    8000017c:	0040006f          	j	80000180 <.LBB1_4+0x22>
    80000180:	4509                	li	a0,2
    80000182:	fea42623          	sw	a0,-20(s0)
    80000186:	0100006f          	j	80000196 <.LBB1_4+0x38>
    8000018a:	fdc42503          	lw	a0,-36(s0)
    8000018e:	fea42623          	sw	a0,-20(s0)
    80000192:	0040006f          	j	80000196 <.LBB1_4+0x38>
    80000196:	fec42503          	lw	a0,-20(s0)
    8000019a:	70a2                	ld	ra,40(sp)
    8000019c:	7402                	ld	s0,32(sp)
    8000019e:	6145                	addi	sp,sp,48
    800001a0:	8082                	ret

00000000800001a2 <hls_vect_mult_start>:
    800001a2:	1101                	addi	sp,sp,-32
    800001a4:	ec06                	sd	ra,24(sp)
    800001a6:	e822                	sd	s0,16(sp)
    800001a8:	1000                	addi	s0,sp,32
    800001aa:	fea43423          	sd	a0,-24(s0)
    800001ae:	fe843503          	ld	a0,-24(s0)
    800001b2:	fea43023          	sd	a0,-32(s0)
    800001b6:	fe043503          	ld	a0,-32(s0)
    800001ba:	4585                	li	a1,1
    800001bc:	00000097          	auipc	ra,0x0
    800001c0:	2e6080e7          	jalr	742(ra) # 800004a2 <XVect_mult_InterruptEnable>
    800001c4:	fe043503          	ld	a0,-32(s0)
    800001c8:	00000097          	auipc	ra,0x0
    800001cc:	29a080e7          	jalr	666(ra) # 80000462 <XVect_mult_InterruptGlobalEnable>
    800001d0:	fe043503          	ld	a0,-32(s0)
    800001d4:	00000097          	auipc	ra,0x0
    800001d8:	010080e7          	jalr	16(ra) # 800001e4 <XVect_mult_Start>
    800001dc:	60e2                	ld	ra,24(sp)
    800001de:	6442                	ld	s0,16(sp)
    800001e0:	6105                	addi	sp,sp,32
    800001e2:	8082                	ret

00000000800001e4 <XVect_mult_Start>:
    800001e4:	1101                	addi	sp,sp,-32
    800001e6:	ec06                	sd	ra,24(sp)
    800001e8:	e822                	sd	s0,16(sp)
    800001ea:	1000                	addi	s0,sp,32
    800001ec:	fea43423          	sd	a0,-24(s0)
    800001f0:	fe843503          	ld	a0,-24(s0)
    800001f4:	6108                	ld	a0,0(a0)
    800001f6:	6108                	ld	a0,0(a0)
    800001f8:	08057513          	andi	a0,a0,128
    800001fc:	fea42223          	sw	a0,-28(s0)
    80000200:	fe446503          	lwu	a0,-28(s0)
    80000204:	00156513          	ori	a0,a0,1
    80000208:	fe843583          	ld	a1,-24(s0)
    8000020c:	618c                	ld	a1,0(a1)
    8000020e:	e188                	sd	a0,0(a1)
    80000210:	60e2                	ld	ra,24(sp)
    80000212:	6442                	ld	s0,16(sp)
    80000214:	6105                	addi	sp,sp,32
    80000216:	8082                	ret

0000000080000218 <XVect_mult_IsDone>:
    80000218:	1101                	addi	sp,sp,-32
    8000021a:	ec06                	sd	ra,24(sp)
    8000021c:	e822                	sd	s0,16(sp)
    8000021e:	1000                	addi	s0,sp,32
    80000220:	fea43423          	sd	a0,-24(s0)
    80000224:	fe843503          	ld	a0,-24(s0)
    80000228:	6108                	ld	a0,0(a0)
    8000022a:	6108                	ld	a0,0(a0)
    8000022c:	fea42223          	sw	a0,-28(s0)
    80000230:	fe446503          	lwu	a0,-28(s0)
    80000234:	8105                	srli	a0,a0,0x1
    80000236:	8905                	andi	a0,a0,1
    80000238:	60e2                	ld	ra,24(sp)
    8000023a:	6442                	ld	s0,16(sp)
    8000023c:	6105                	addi	sp,sp,32
    8000023e:	8082                	ret

0000000080000240 <XVect_mult_IsIdle>:
    80000240:	1101                	addi	sp,sp,-32
    80000242:	ec06                	sd	ra,24(sp)
    80000244:	e822                	sd	s0,16(sp)
    80000246:	1000                	addi	s0,sp,32
    80000248:	fea43423          	sd	a0,-24(s0)
    8000024c:	fe843503          	ld	a0,-24(s0)
    80000250:	6108                	ld	a0,0(a0)
    80000252:	6108                	ld	a0,0(a0)
    80000254:	fea42223          	sw	a0,-28(s0)
    80000258:	fe446503          	lwu	a0,-28(s0)
    8000025c:	8109                	srli	a0,a0,0x2
    8000025e:	8905                	andi	a0,a0,1
    80000260:	60e2                	ld	ra,24(sp)
    80000262:	6442                	ld	s0,16(sp)
    80000264:	6105                	addi	sp,sp,32
    80000266:	8082                	ret

0000000080000268 <XVect_mult_IsReady>:
    80000268:	1101                	addi	sp,sp,-32
    8000026a:	ec06                	sd	ra,24(sp)
    8000026c:	e822                	sd	s0,16(sp)
    8000026e:	1000                	addi	s0,sp,32
    80000270:	fea43423          	sd	a0,-24(s0)
    80000274:	fe843503          	ld	a0,-24(s0)
    80000278:	6108                	ld	a0,0(a0)
    8000027a:	6108                	ld	a0,0(a0)
    8000027c:	fea43023          	sd	a0,-32(s0)
    80000280:	fe044503          	lbu	a0,-32(s0)
    80000284:	8905                	andi	a0,a0,1
    80000286:	00153513          	seqz	a0,a0
    8000028a:	60e2                	ld	ra,24(sp)
    8000028c:	6442                	ld	s0,16(sp)
    8000028e:	6105                	addi	sp,sp,32
    80000290:	8082                	ret

0000000080000292 <XVect_mult_EnableAutoRestart>:
    80000292:	1101                	addi	sp,sp,-32
    80000294:	ec06                	sd	ra,24(sp)
    80000296:	e822                	sd	s0,16(sp)
    80000298:	1000                	addi	s0,sp,32
    8000029a:	fea43423          	sd	a0,-24(s0)
    8000029e:	fe843503          	ld	a0,-24(s0)
    800002a2:	610c                	ld	a1,0(a0)
    800002a4:	08000513          	li	a0,128
    800002a8:	e188                	sd	a0,0(a1)
    800002aa:	60e2                	ld	ra,24(sp)
    800002ac:	6442                	ld	s0,16(sp)
    800002ae:	6105                	addi	sp,sp,32
    800002b0:	8082                	ret

00000000800002b2 <XVect_mult_DisableAutoRestart>:
    800002b2:	1101                	addi	sp,sp,-32
    800002b4:	ec06                	sd	ra,24(sp)
    800002b6:	e822                	sd	s0,16(sp)
    800002b8:	1000                	addi	s0,sp,32
    800002ba:	fea43423          	sd	a0,-24(s0)
    800002be:	fe843503          	ld	a0,-24(s0)
    800002c2:	610c                	ld	a1,0(a0)
    800002c4:	4501                	li	a0,0
    800002c6:	e188                	sd	a0,0(a1)
    800002c8:	60e2                	ld	ra,24(sp)
    800002ca:	6442                	ld	s0,16(sp)
    800002cc:	6105                	addi	sp,sp,32
    800002ce:	8082                	ret

00000000800002d0 <XVect_mult_Set_size>:
    800002d0:	1101                	addi	sp,sp,-32
    800002d2:	ec06                	sd	ra,24(sp)
    800002d4:	e822                	sd	s0,16(sp)
    800002d6:	1000                	addi	s0,sp,32
    800002d8:	fea43423          	sd	a0,-24(s0)
    800002dc:	feb42223          	sw	a1,-28(s0)
    800002e0:	fe843583          	ld	a1,-24(s0)
    800002e4:	fe446503          	lwu	a0,-28(s0)
    800002e8:	618c                	ld	a1,0(a1)
    800002ea:	e988                	sd	a0,16(a1)
    800002ec:	60e2                	ld	ra,24(sp)
    800002ee:	6442                	ld	s0,16(sp)
    800002f0:	6105                	addi	sp,sp,32
    800002f2:	8082                	ret

00000000800002f4 <XVect_mult_Get_size>:
    800002f4:	1101                	addi	sp,sp,-32
    800002f6:	ec06                	sd	ra,24(sp)
    800002f8:	e822                	sd	s0,16(sp)
    800002fa:	1000                	addi	s0,sp,32
    800002fc:	fea43423          	sd	a0,-24(s0)
    80000300:	fe843503          	ld	a0,-24(s0)
    80000304:	6108                	ld	a0,0(a0)
    80000306:	6908                	ld	a0,16(a0)
    80000308:	fea42223          	sw	a0,-28(s0)
    8000030c:	fe442503          	lw	a0,-28(s0)
    80000310:	60e2                	ld	ra,24(sp)
    80000312:	6442                	ld	s0,16(sp)
    80000314:	6105                	addi	sp,sp,32
    80000316:	8082                	ret

0000000080000318 <XVect_mult_Set_a>:
    80000318:	1101                	addi	sp,sp,-32
    8000031a:	ec06                	sd	ra,24(sp)
    8000031c:	e822                	sd	s0,16(sp)
    8000031e:	1000                	addi	s0,sp,32
    80000320:	fea43423          	sd	a0,-24(s0)
    80000324:	feb43023          	sd	a1,-32(s0)
    80000328:	fe843583          	ld	a1,-24(s0)
    8000032c:	fe046503          	lwu	a0,-32(s0)
    80000330:	618c                	ld	a1,0(a1)
    80000332:	ed88                	sd	a0,24(a1)
    80000334:	fe446503          	lwu	a0,-28(s0)
    80000338:	fe843583          	ld	a1,-24(s0)
    8000033c:	618c                	ld	a1,0(a1)
    8000033e:	00a5be23          	sd	a0,28(a1)
    80000342:	60e2                	ld	ra,24(sp)
    80000344:	6442                	ld	s0,16(sp)
    80000346:	6105                	addi	sp,sp,32
    80000348:	8082                	ret

000000008000034a <XVect_mult_Get_a>:
    8000034a:	1101                	addi	sp,sp,-32
    8000034c:	ec06                	sd	ra,24(sp)
    8000034e:	e822                	sd	s0,16(sp)
    80000350:	1000                	addi	s0,sp,32
    80000352:	fea43423          	sd	a0,-24(s0)
    80000356:	fe843503          	ld	a0,-24(s0)
    8000035a:	6108                	ld	a0,0(a0)
    8000035c:	6d08                	ld	a0,24(a0)
    8000035e:	fea43023          	sd	a0,-32(s0)
    80000362:	fe843503          	ld	a0,-24(s0)
    80000366:	6108                	ld	a0,0(a0)
    80000368:	01c53503          	ld	a0,28(a0) # ffffffffffffe01c <_MEM_END+0xffffffff6fffe024>
    8000036c:	02051593          	slli	a1,a0,0x20
    80000370:	fe043503          	ld	a0,-32(s0)
    80000374:	952e                	add	a0,a0,a1
    80000376:	fea43023          	sd	a0,-32(s0)
    8000037a:	fe043503          	ld	a0,-32(s0)
    8000037e:	60e2                	ld	ra,24(sp)
    80000380:	6442                	ld	s0,16(sp)
    80000382:	6105                	addi	sp,sp,32
    80000384:	8082                	ret

0000000080000386 <XVect_mult_Set_b>:
    80000386:	1101                	addi	sp,sp,-32
    80000388:	ec06                	sd	ra,24(sp)
    8000038a:	e822                	sd	s0,16(sp)
    8000038c:	1000                	addi	s0,sp,32
    8000038e:	fea43423          	sd	a0,-24(s0)
    80000392:	feb43023          	sd	a1,-32(s0)
    80000396:	fe843583          	ld	a1,-24(s0)
    8000039a:	fe046503          	lwu	a0,-32(s0)
    8000039e:	618c                	ld	a1,0(a1)
    800003a0:	02a5b223          	sd	a0,36(a1)
    800003a4:	fe446503          	lwu	a0,-28(s0)
    800003a8:	fe843583          	ld	a1,-24(s0)
    800003ac:	618c                	ld	a1,0(a1)
    800003ae:	f588                	sd	a0,40(a1)
    800003b0:	60e2                	ld	ra,24(sp)
    800003b2:	6442                	ld	s0,16(sp)
    800003b4:	6105                	addi	sp,sp,32
    800003b6:	8082                	ret

00000000800003b8 <XVect_mult_Get_b>:
    800003b8:	1101                	addi	sp,sp,-32
    800003ba:	ec06                	sd	ra,24(sp)
    800003bc:	e822                	sd	s0,16(sp)
    800003be:	1000                	addi	s0,sp,32
    800003c0:	fea43423          	sd	a0,-24(s0)
    800003c4:	fe843503          	ld	a0,-24(s0)
    800003c8:	6108                	ld	a0,0(a0)
    800003ca:	02453503          	ld	a0,36(a0)
    800003ce:	fea43023          	sd	a0,-32(s0)
    800003d2:	fe843503          	ld	a0,-24(s0)
    800003d6:	6108                	ld	a0,0(a0)
    800003d8:	7508                	ld	a0,40(a0)
    800003da:	02051593          	slli	a1,a0,0x20
    800003de:	fe043503          	ld	a0,-32(s0)
    800003e2:	952e                	add	a0,a0,a1
    800003e4:	fea43023          	sd	a0,-32(s0)
    800003e8:	fe043503          	ld	a0,-32(s0)
    800003ec:	60e2                	ld	ra,24(sp)
    800003ee:	6442                	ld	s0,16(sp)
    800003f0:	6105                	addi	sp,sp,32
    800003f2:	8082                	ret

00000000800003f4 <XVect_mult_Set_c>:
    800003f4:	1101                	addi	sp,sp,-32
    800003f6:	ec06                	sd	ra,24(sp)
    800003f8:	e822                	sd	s0,16(sp)
    800003fa:	1000                	addi	s0,sp,32
    800003fc:	fea43423          	sd	a0,-24(s0)
    80000400:	feb43023          	sd	a1,-32(s0)
    80000404:	fe843583          	ld	a1,-24(s0)
    80000408:	fe046503          	lwu	a0,-32(s0)
    8000040c:	618c                	ld	a1,0(a1)
    8000040e:	f988                	sd	a0,48(a1)
    80000410:	fe446503          	lwu	a0,-28(s0)
    80000414:	fe843583          	ld	a1,-24(s0)
    80000418:	618c                	ld	a1,0(a1)
    8000041a:	02a5ba23          	sd	a0,52(a1)
    8000041e:	60e2                	ld	ra,24(sp)
    80000420:	6442                	ld	s0,16(sp)
    80000422:	6105                	addi	sp,sp,32
    80000424:	8082                	ret

0000000080000426 <XVect_mult_Get_c>:
    80000426:	1101                	addi	sp,sp,-32
    80000428:	ec06                	sd	ra,24(sp)
    8000042a:	e822                	sd	s0,16(sp)
    8000042c:	1000                	addi	s0,sp,32
    8000042e:	fea43423          	sd	a0,-24(s0)
    80000432:	fe843503          	ld	a0,-24(s0)
    80000436:	6108                	ld	a0,0(a0)
    80000438:	7908                	ld	a0,48(a0)
    8000043a:	fea43023          	sd	a0,-32(s0)
    8000043e:	fe843503          	ld	a0,-24(s0)
    80000442:	6108                	ld	a0,0(a0)
    80000444:	03453503          	ld	a0,52(a0)
    80000448:	02051593          	slli	a1,a0,0x20
    8000044c:	fe043503          	ld	a0,-32(s0)
    80000450:	952e                	add	a0,a0,a1
    80000452:	fea43023          	sd	a0,-32(s0)
    80000456:	fe043503          	ld	a0,-32(s0)
    8000045a:	60e2                	ld	ra,24(sp)
    8000045c:	6442                	ld	s0,16(sp)
    8000045e:	6105                	addi	sp,sp,32
    80000460:	8082                	ret

0000000080000462 <XVect_mult_InterruptGlobalEnable>:
    80000462:	1101                	addi	sp,sp,-32
    80000464:	ec06                	sd	ra,24(sp)
    80000466:	e822                	sd	s0,16(sp)
    80000468:	1000                	addi	s0,sp,32
    8000046a:	fea43423          	sd	a0,-24(s0)
    8000046e:	fe843503          	ld	a0,-24(s0)
    80000472:	610c                	ld	a1,0(a0)
    80000474:	4505                	li	a0,1
    80000476:	00a5b223          	sd	a0,4(a1)
    8000047a:	60e2                	ld	ra,24(sp)
    8000047c:	6442                	ld	s0,16(sp)
    8000047e:	6105                	addi	sp,sp,32
    80000480:	8082                	ret

0000000080000482 <XVect_mult_InterruptGlobalDisable>:
    80000482:	1101                	addi	sp,sp,-32
    80000484:	ec06                	sd	ra,24(sp)
    80000486:	e822                	sd	s0,16(sp)
    80000488:	1000                	addi	s0,sp,32
    8000048a:	fea43423          	sd	a0,-24(s0)
    8000048e:	fe843503          	ld	a0,-24(s0)
    80000492:	610c                	ld	a1,0(a0)
    80000494:	4501                	li	a0,0
    80000496:	00a5b223          	sd	a0,4(a1)
    8000049a:	60e2                	ld	ra,24(sp)
    8000049c:	6442                	ld	s0,16(sp)
    8000049e:	6105                	addi	sp,sp,32
    800004a0:	8082                	ret

00000000800004a2 <XVect_mult_InterruptEnable>:
    800004a2:	1101                	addi	sp,sp,-32
    800004a4:	ec06                	sd	ra,24(sp)
    800004a6:	e822                	sd	s0,16(sp)
    800004a8:	1000                	addi	s0,sp,32
    800004aa:	fea43423          	sd	a0,-24(s0)
    800004ae:	feb42223          	sw	a1,-28(s0)
    800004b2:	fe843503          	ld	a0,-24(s0)
    800004b6:	6108                	ld	a0,0(a0)
    800004b8:	6508                	ld	a0,8(a0)
    800004ba:	fea42023          	sw	a0,-32(s0)
    800004be:	fe046503          	lwu	a0,-32(s0)
    800004c2:	fe446583          	lwu	a1,-28(s0)
    800004c6:	8d4d                	or	a0,a0,a1
    800004c8:	fe843583          	ld	a1,-24(s0)
    800004cc:	618c                	ld	a1,0(a1)
    800004ce:	e588                	sd	a0,8(a1)
    800004d0:	60e2                	ld	ra,24(sp)
    800004d2:	6442                	ld	s0,16(sp)
    800004d4:	6105                	addi	sp,sp,32
    800004d6:	8082                	ret

00000000800004d8 <XVect_mult_InterruptDisable>:
    800004d8:	1101                	addi	sp,sp,-32
    800004da:	ec06                	sd	ra,24(sp)
    800004dc:	e822                	sd	s0,16(sp)
    800004de:	1000                	addi	s0,sp,32
    800004e0:	fea43423          	sd	a0,-24(s0)
    800004e4:	feb42223          	sw	a1,-28(s0)
    800004e8:	fe843503          	ld	a0,-24(s0)
    800004ec:	6108                	ld	a0,0(a0)
    800004ee:	6508                	ld	a0,8(a0)
    800004f0:	fea42023          	sw	a0,-32(s0)
    800004f4:	fe046503          	lwu	a0,-32(s0)
    800004f8:	fe446583          	lwu	a1,-28(s0)
    800004fc:	567d                	li	a2,-1
    800004fe:	9201                	srli	a2,a2,0x20
    80000500:	8db1                	xor	a1,a1,a2
    80000502:	8d6d                	and	a0,a0,a1
    80000504:	fe843583          	ld	a1,-24(s0)
    80000508:	618c                	ld	a1,0(a1)
    8000050a:	e588                	sd	a0,8(a1)
    8000050c:	60e2                	ld	ra,24(sp)
    8000050e:	6442                	ld	s0,16(sp)
    80000510:	6105                	addi	sp,sp,32
    80000512:	8082                	ret

0000000080000514 <XVect_mult_InterruptClear>:
    80000514:	1101                	addi	sp,sp,-32
    80000516:	ec06                	sd	ra,24(sp)
    80000518:	e822                	sd	s0,16(sp)
    8000051a:	1000                	addi	s0,sp,32
    8000051c:	fea43423          	sd	a0,-24(s0)
    80000520:	feb42223          	sw	a1,-28(s0)
    80000524:	fe843583          	ld	a1,-24(s0)
    80000528:	fe446503          	lwu	a0,-28(s0)
    8000052c:	618c                	ld	a1,0(a1)
    8000052e:	00a5b623          	sd	a0,12(a1)
    80000532:	60e2                	ld	ra,24(sp)
    80000534:	6442                	ld	s0,16(sp)
    80000536:	6105                	addi	sp,sp,32
    80000538:	8082                	ret

000000008000053a <XVect_mult_InterruptGetEnabled>:
    8000053a:	1101                	addi	sp,sp,-32
    8000053c:	ec06                	sd	ra,24(sp)
    8000053e:	e822                	sd	s0,16(sp)
    80000540:	1000                	addi	s0,sp,32
    80000542:	fea43423          	sd	a0,-24(s0)
    80000546:	fe843503          	ld	a0,-24(s0)
    8000054a:	6108                	ld	a0,0(a0)
    8000054c:	6508                	ld	a0,8(a0)
    8000054e:	2501                	sext.w	a0,a0
    80000550:	60e2                	ld	ra,24(sp)
    80000552:	6442                	ld	s0,16(sp)
    80000554:	6105                	addi	sp,sp,32
    80000556:	8082                	ret

0000000080000558 <XVect_mult_InterruptGetStatus>:
    80000558:	1101                	addi	sp,sp,-32
    8000055a:	ec06                	sd	ra,24(sp)
    8000055c:	e822                	sd	s0,16(sp)
    8000055e:	1000                	addi	s0,sp,32
    80000560:	fea43423          	sd	a0,-24(s0)
    80000564:	fe843503          	ld	a0,-24(s0)
    80000568:	6108                	ld	a0,0(a0)
    8000056a:	00c53503          	ld	a0,12(a0)
    8000056e:	2501                	sext.w	a0,a0
    80000570:	60e2                	ld	ra,24(sp)
    80000572:	6442                	ld	s0,16(sp)
    80000574:	6105                	addi	sp,sp,32
    80000576:	8082                	ret

0000000080000578 <XVect_mult_Initialize>:
    80000578:	1101                	addi	sp,sp,-32
    8000057a:	ec06                	sd	ra,24(sp)
    8000057c:	e822                	sd	s0,16(sp)
    8000057e:	1000                	addi	s0,sp,32
    80000580:	fea43423          	sd	a0,-24(s0)
    80000584:	feb43023          	sd	a1,-32(s0)
    80000588:	fe843583          	ld	a1,-24(s0)
    8000058c:	60001537          	lui	a0,0x60001
    80000590:	0506                	slli	a0,a0,0x1
    80000592:	e188                	sd	a0,0(a1)
    80000594:	4501                	li	a0,0
    80000596:	60e2                	ld	ra,24(sp)
    80000598:	6442                	ld	s0,16(sp)
    8000059a:	6105                	addi	sp,sp,32
    8000059c:	8082                	ret

000000008000059e <XVect_mult_Release>:
    8000059e:	1101                	addi	sp,sp,-32
    800005a0:	ec06                	sd	ra,24(sp)
    800005a2:	e822                	sd	s0,16(sp)
    800005a4:	1000                	addi	s0,sp,32
    800005a6:	fea43423          	sd	a0,-24(s0)
    800005aa:	4501                	li	a0,0
    800005ac:	60e2                	ld	ra,24(sp)
    800005ae:	6442                	ld	s0,16(sp)
    800005b0:	6105                	addi	sp,sp,32
    800005b2:	8082                	ret
