
a.out:     file format elf64-littleriscv


Disassembly of section .text:

0000000080000000 <_start>:
    80000000:	10000117          	auipc	sp,0x10000
    80000004:	ff810113          	addi	sp,sp,-8 # 8ffffff8 <_MEM_END>
    80000008:	00000597          	auipc	a1,0x0
    8000000c:	01458593          	addi	a1,a1,20 # 8000001c <_trap>
    80000010:	30559073          	csrw	mtvec,a1
    80000014:	03e000ef          	jal	ra,80000052 <main>

0000000080000018 <_end>:
    80000018:	0000006f          	j	80000018 <_end>

000000008000001c <_trap>:
    8000001c:	0000006f          	j	8000001c <_trap>

0000000080000020 <success>:
    80000020:	1141                	addi	sp,sp,-16
    80000022:	e406                	sd	ra,8(sp)
    80000024:	e022                	sd	s0,0(sp)
    80000026:	0800                	addi	s0,sp,16

0000000080000028 <.LBB0_2>:
    80000028:	00001517          	auipc	a0,0x1
    8000002c:	bf850513          	addi	a0,a0,-1032 # 80000c20 <uart_base>
    80000030:	610c                	ld	a1,0(a0)
    80000032:	07300513          	li	a0,115
    80000036:	00a58023          	sb	a0,0(a1)
    8000003a:	0040006f          	j	8000003e <.LBB0_2+0x16>
    8000003e:	0000006f          	j	8000003e <.LBB0_2+0x16>

0000000080000042 <fail>:
    80000042:	1141                	addi	sp,sp,-16
    80000044:	e406                	sd	ra,8(sp)
    80000046:	e022                	sd	s0,0(sp)
    80000048:	0800                	addi	s0,sp,16
    8000004a:	0040006f          	j	8000004e <fail+0xc>
    8000004e:	0000006f          	j	8000004e <fail+0xc>

0000000080000052 <main>:
    80000052:	7169                	addi	sp,sp,-304
    80000054:	f606                	sd	ra,296(sp)
    80000056:	f222                	sd	s0,288(sp)
    80000058:	1a00                	addi	s0,sp,304
    8000005a:	4501                	li	a0,0
    8000005c:	eca43c23          	sd	a0,-296(s0)
    80000060:	fea42623          	sw	a0,-20(s0)

0000000080000064 <.LBB2_35>:
    80000064:	00001517          	auipc	a0,0x1
    80000068:	ba450513          	addi	a0,a0,-1116 # 80000c08 <vect_mult>
    8000006c:	600015b7          	lui	a1,0x60001
    80000070:	0586                	slli	a1,a1,0x1
    80000072:	e10c                	sd	a1,0(a0)
    80000074:	00000097          	auipc	ra,0x0
    80000078:	3ea080e7          	jalr	1002(ra) # 8000045e <XVect_mult_IsReady>
    8000007c:	ed843583          	ld	a1,-296(s0)
    80000080:	00b51963          	bne	a0,a1,80000092 <.LBB2_35+0x2e>
    80000084:	0040006f          	j	80000088 <.LBB2_35+0x24>
    80000088:	4509                	li	a0,2
    8000008a:	fea42623          	sw	a0,-20(s0)
    8000008e:	33c0006f          	j	800003ca <.LBB2_40+0xb4>
    80000092:	4529                	li	a0,10
    80000094:	fea42223          	sw	a0,-28(s0)
    80000098:	fe442583          	lw	a1,-28(s0)

000000008000009c <.LBB2_36>:
    8000009c:	00001517          	auipc	a0,0x1
    800000a0:	b6c50513          	addi	a0,a0,-1172 # 80000c08 <vect_mult>
    800000a4:	eca43823          	sd	a0,-304(s0)
    800000a8:	00000097          	auipc	ra,0x0
    800000ac:	420080e7          	jalr	1056(ra) # 800004c8 <XVect_mult_Set_size>
    800000b0:	ed043503          	ld	a0,-304(s0)
    800000b4:	000905b7          	lui	a1,0x90
    800000b8:	0015861b          	addiw	a2,a1,1
    800000bc:	0632                	slli	a2,a2,0xc
    800000be:	fcc43c23          	sd	a2,-40(s0)
    800000c2:	48001637          	lui	a2,0x48001
    800000c6:	0606                	slli	a2,a2,0x1
    800000c8:	fcc43823          	sd	a2,-48(s0)
    800000cc:	258d                	addiw	a1,a1,3
    800000ce:	05b2                	slli	a1,a1,0xc
    800000d0:	fcb43423          	sd	a1,-56(s0)
    800000d4:	6110                	ld	a2,0(a0)
    800000d6:	4581                	li	a1,0
    800000d8:	ce4c                	sw	a1,28(a2)
    800000da:	6110                	ld	a2,0(a0)
    800000dc:	d60c                	sw	a1,40(a2)
    800000de:	6110                	ld	a2,0(a0)
    800000e0:	da4c                	sw	a1,52(a2)
    800000e2:	fd843603          	ld	a2,-40(s0)
    800000e6:	6114                	ld	a3,0(a0)
    800000e8:	ce90                	sw	a2,24(a3)
    800000ea:	fd043603          	ld	a2,-48(s0)
    800000ee:	6114                	ld	a3,0(a0)
    800000f0:	d2d0                	sw	a2,36(a3)
    800000f2:	fc843603          	ld	a2,-56(s0)
    800000f6:	6114                	ld	a3,0(a0)
    800000f8:	da90                	sw	a2,48(a3)
    800000fa:	6110                	ld	a2,0(a0)
    800000fc:	01866603          	lwu	a2,24(a2) # 48001018 <_start-0x37ffefe8>
    80000100:	fcc43023          	sd	a2,-64(s0)
    80000104:	6108                	ld	a0,0(a0)
    80000106:	01c56503          	lwu	a0,28(a0)
    8000010a:	faa43c23          	sd	a0,-72(s0)
    8000010e:	fc043503          	ld	a0,-64(s0)
    80000112:	fb843603          	ld	a2,-72(s0)
    80000116:	1602                	slli	a2,a2,0x20
    80000118:	8d51                	or	a0,a0,a2
    8000011a:	faa43823          	sd	a0,-80(s0)
    8000011e:	fb843503          	ld	a0,-72(s0)
    80000122:	00b50963          	beq	a0,a1,80000134 <.LBB2_36+0x98>
    80000126:	0040006f          	j	8000012a <.LBB2_36+0x8e>
    8000012a:	4505                	li	a0,1
    8000012c:	fea42623          	sw	a0,-20(s0)
    80000130:	29a0006f          	j	800003ca <.LBB2_40+0xb4>
    80000134:	fd843503          	ld	a0,-40(s0)
    80000138:	fc043583          	ld	a1,-64(s0)
    8000013c:	00b50963          	beq	a0,a1,8000014e <.LBB2_36+0xb2>
    80000140:	0040006f          	j	80000144 <.LBB2_36+0xa8>
    80000144:	4505                	li	a0,1
    80000146:	fea42623          	sw	a0,-20(s0)
    8000014a:	2800006f          	j	800003ca <.LBB2_40+0xb4>
    8000014e:	fd843503          	ld	a0,-40(s0)
    80000152:	fb043583          	ld	a1,-80(s0)
    80000156:	00b50963          	beq	a0,a1,80000168 <.LBB2_37>
    8000015a:	0040006f          	j	8000015e <.LBB2_36+0xc2>
    8000015e:	4505                	li	a0,1
    80000160:	fea42623          	sw	a0,-20(s0)
    80000164:	2660006f          	j	800003ca <.LBB2_40+0xb4>

0000000080000168 <.LBB2_37>:
    80000168:	00001517          	auipc	a0,0x1
    8000016c:	aa050513          	addi	a0,a0,-1376 # 80000c08 <vect_mult>
    80000170:	610c                	ld	a1,0(a0)
    80000172:	0245e583          	lwu	a1,36(a1) # 90024 <_start-0x7ff6ffdc>
    80000176:	fab43423          	sd	a1,-88(s0)
    8000017a:	6108                	ld	a0,0(a0)
    8000017c:	02856503          	lwu	a0,40(a0)
    80000180:	faa43023          	sd	a0,-96(s0)
    80000184:	fa843503          	ld	a0,-88(s0)
    80000188:	fa043583          	ld	a1,-96(s0)
    8000018c:	1582                	slli	a1,a1,0x20
    8000018e:	8d4d                	or	a0,a0,a1
    80000190:	f8a43c23          	sd	a0,-104(s0)
    80000194:	fa043503          	ld	a0,-96(s0)
    80000198:	4581                	li	a1,0
    8000019a:	00b50963          	beq	a0,a1,800001ac <.LBB2_37+0x44>
    8000019e:	0040006f          	j	800001a2 <.LBB2_37+0x3a>
    800001a2:	4509                	li	a0,2
    800001a4:	fea42623          	sw	a0,-20(s0)
    800001a8:	2220006f          	j	800003ca <.LBB2_40+0xb4>
    800001ac:	fd043503          	ld	a0,-48(s0)
    800001b0:	fa843583          	ld	a1,-88(s0)
    800001b4:	00b50963          	beq	a0,a1,800001c6 <.LBB2_37+0x5e>
    800001b8:	0040006f          	j	800001bc <.LBB2_37+0x54>
    800001bc:	4509                	li	a0,2
    800001be:	fea42623          	sw	a0,-20(s0)
    800001c2:	2080006f          	j	800003ca <.LBB2_40+0xb4>
    800001c6:	fd043503          	ld	a0,-48(s0)
    800001ca:	f9843583          	ld	a1,-104(s0)
    800001ce:	00b50963          	beq	a0,a1,800001e0 <.LBB2_38>
    800001d2:	0040006f          	j	800001d6 <.LBB2_37+0x6e>
    800001d6:	4509                	li	a0,2
    800001d8:	fea42623          	sw	a0,-20(s0)
    800001dc:	1ee0006f          	j	800003ca <.LBB2_40+0xb4>

00000000800001e0 <.LBB2_38>:
    800001e0:	00001517          	auipc	a0,0x1
    800001e4:	a2850513          	addi	a0,a0,-1496 # 80000c08 <vect_mult>
    800001e8:	610c                	ld	a1,0(a0)
    800001ea:	0305e583          	lwu	a1,48(a1)
    800001ee:	f8b43823          	sd	a1,-112(s0)
    800001f2:	6108                	ld	a0,0(a0)
    800001f4:	03456503          	lwu	a0,52(a0)
    800001f8:	f8a43423          	sd	a0,-120(s0)
    800001fc:	f9043503          	ld	a0,-112(s0)
    80000200:	f8843583          	ld	a1,-120(s0)
    80000204:	1582                	slli	a1,a1,0x20
    80000206:	8d4d                	or	a0,a0,a1
    80000208:	f8a43023          	sd	a0,-128(s0)
    8000020c:	f8843503          	ld	a0,-120(s0)
    80000210:	4581                	li	a1,0
    80000212:	00b50963          	beq	a0,a1,80000224 <.LBB2_38+0x44>
    80000216:	0040006f          	j	8000021a <.LBB2_38+0x3a>
    8000021a:	450d                	li	a0,3
    8000021c:	fea42623          	sw	a0,-20(s0)
    80000220:	1aa0006f          	j	800003ca <.LBB2_40+0xb4>
    80000224:	fc843503          	ld	a0,-56(s0)
    80000228:	f9043583          	ld	a1,-112(s0)
    8000022c:	00b50963          	beq	a0,a1,8000023e <.LBB2_38+0x5e>
    80000230:	0040006f          	j	80000234 <.LBB2_38+0x54>
    80000234:	450d                	li	a0,3
    80000236:	fea42623          	sw	a0,-20(s0)
    8000023a:	1900006f          	j	800003ca <.LBB2_40+0xb4>
    8000023e:	fc843503          	ld	a0,-56(s0)
    80000242:	f8043583          	ld	a1,-128(s0)
    80000246:	00b50963          	beq	a0,a1,80000258 <.LBB2_38+0x78>
    8000024a:	0040006f          	j	8000024e <.LBB2_38+0x6e>
    8000024e:	450d                	li	a0,3
    80000250:	fea42623          	sw	a0,-20(s0)
    80000254:	1760006f          	j	800003ca <.LBB2_40+0xb4>
    80000258:	fd843503          	ld	a0,-40(s0)
    8000025c:	f6a43c23          	sd	a0,-136(s0)
    80000260:	fd043503          	ld	a0,-48(s0)
    80000264:	f6a43823          	sd	a0,-144(s0)
    80000268:	fc843503          	ld	a0,-56(s0)
    8000026c:	f6a43423          	sd	a0,-152(s0)
    80000270:	4501                	li	a0,0
    80000272:	eea42623          	sw	a0,-276(s0)
    80000276:	0040006f          	j	8000027a <.LBB2_38+0x9a>
    8000027a:	eec42583          	lw	a1,-276(s0)
    8000027e:	4525                	li	a0,9
    80000280:	06b54f63          	blt	a0,a1,800002fe <.LBB2_38+0x11e>
    80000284:	0040006f          	j	80000288 <.LBB2_38+0xa8>
    80000288:	eec42503          	lw	a0,-276(s0)
    8000028c:	00251613          	slli	a2,a0,0x2
    80000290:	f4040593          	addi	a1,s0,-192
    80000294:	95b2                	add	a1,a1,a2
    80000296:	c188                	sw	a0,0(a1)
    80000298:	eec42503          	lw	a0,-276(s0)
    8000029c:	00251613          	slli	a2,a0,0x2
    800002a0:	f1840593          	addi	a1,s0,-232
    800002a4:	95b2                	add	a1,a1,a2
    800002a6:	c188                	sw	a0,0(a1)
    800002a8:	eec42583          	lw	a1,-276(s0)
    800002ac:	02b5853b          	mulw	a0,a1,a1
    800002b0:	00259613          	slli	a2,a1,0x2
    800002b4:	ef040593          	addi	a1,s0,-272
    800002b8:	95b2                	add	a1,a1,a2
    800002ba:	c188                	sw	a0,0(a1)
    800002bc:	f7843583          	ld	a1,-136(s0)
    800002c0:	eec42503          	lw	a0,-276(s0)
    800002c4:	00251613          	slli	a2,a0,0x2
    800002c8:	95b2                	add	a1,a1,a2
    800002ca:	c188                	sw	a0,0(a1)
    800002cc:	f7043583          	ld	a1,-144(s0)
    800002d0:	eec42503          	lw	a0,-276(s0)
    800002d4:	00251613          	slli	a2,a0,0x2
    800002d8:	95b2                	add	a1,a1,a2
    800002da:	c188                	sw	a0,0(a1)
    800002dc:	f6843503          	ld	a0,-152(s0)
    800002e0:	eec42583          	lw	a1,-276(s0)
    800002e4:	058a                	slli	a1,a1,0x2
    800002e6:	95aa                	add	a1,a1,a0
    800002e8:	4501                	li	a0,0
    800002ea:	c188                	sw	a0,0(a1)
    800002ec:	0040006f          	j	800002f0 <.LBB2_38+0x110>
    800002f0:	eec42503          	lw	a0,-276(s0)
    800002f4:	2505                	addiw	a0,a0,1
    800002f6:	eea42623          	sw	a0,-276(s0)
    800002fa:	f81ff06f          	j	8000027a <.LBB2_38+0x9a>
    800002fe:	0ff0000f          	fence

0000000080000302 <.LBB2_39>:
    80000302:	00001517          	auipc	a0,0x1
    80000306:	90650513          	addi	a0,a0,-1786 # 80000c08 <vect_mult>
    8000030a:	00000097          	auipc	ra,0x0
    8000030e:	0ce080e7          	jalr	206(ra) # 800003d8 <XVect_mult_Start>
    80000312:	0040006f          	j	80000316 <.LBB2_40>

0000000080000316 <.LBB2_40>:
    80000316:	00001517          	auipc	a0,0x1
    8000031a:	8f250513          	addi	a0,a0,-1806 # 80000c08 <vect_mult>
    8000031e:	00000097          	auipc	ra,0x0
    80000322:	0f0080e7          	jalr	240(ra) # 8000040e <XVect_mult_IsDone>
    80000326:	4581                	li	a1,0
    80000328:	00b51663          	bne	a0,a1,80000334 <.LBB2_40+0x1e>
    8000032c:	0040006f          	j	80000330 <.LBB2_40+0x1a>
    80000330:	fe7ff06f          	j	80000316 <.LBB2_40>
    80000334:	4501                	li	a0,0
    80000336:	eea42423          	sw	a0,-280(s0)
    8000033a:	eea42223          	sw	a0,-284(s0)
    8000033e:	0040006f          	j	80000342 <.LBB2_40+0x2c>
    80000342:	ee442583          	lw	a1,-284(s0)
    80000346:	4525                	li	a0,9
    80000348:	04b54863          	blt	a0,a1,80000398 <.LBB2_40+0x82>
    8000034c:	0040006f          	j	80000350 <.LBB2_40+0x3a>
    80000350:	f6843503          	ld	a0,-152(s0)
    80000354:	ee442583          	lw	a1,-284(s0)
    80000358:	058a                	slli	a1,a1,0x2
    8000035a:	952e                	add	a0,a0,a1
    8000035c:	4108                	lw	a0,0(a0)
    8000035e:	eea42023          	sw	a0,-288(s0)
    80000362:	ee042503          	lw	a0,-288(s0)
    80000366:	ee442583          	lw	a1,-284(s0)
    8000036a:	00259613          	slli	a2,a1,0x2
    8000036e:	ef040593          	addi	a1,s0,-272
    80000372:	95b2                	add	a1,a1,a2
    80000374:	418c                	lw	a1,0(a1)
    80000376:	8d2d                	xor	a0,a0,a1
    80000378:	00153593          	seqz	a1,a0
    8000037c:	ee842503          	lw	a0,-280(s0)
    80000380:	9d2d                	addw	a0,a0,a1
    80000382:	eea42423          	sw	a0,-280(s0)
    80000386:	0040006f          	j	8000038a <.LBB2_40+0x74>
    8000038a:	ee442503          	lw	a0,-284(s0)
    8000038e:	2505                	addiw	a0,a0,1
    80000390:	eea42223          	sw	a0,-284(s0)
    80000394:	fafff06f          	j	80000342 <.LBB2_40+0x2c>
    80000398:	ee842503          	lw	a0,-280(s0)
    8000039c:	45a9                	li	a1,10
    8000039e:	00b51d63          	bne	a0,a1,800003b8 <.LBB2_40+0xa2>
    800003a2:	0040006f          	j	800003a6 <.LBB2_40+0x90>
    800003a6:	00000097          	auipc	ra,0x0
    800003aa:	c7a080e7          	jalr	-902(ra) # 80000020 <success>
    800003ae:	4521                	li	a0,8
    800003b0:	fea42623          	sw	a0,-20(s0)
    800003b4:	0160006f          	j	800003ca <.LBB2_40+0xb4>
    800003b8:	00000097          	auipc	ra,0x0
    800003bc:	c8a080e7          	jalr	-886(ra) # 80000042 <fail>
    800003c0:	4505                	li	a0,1
    800003c2:	fea42623          	sw	a0,-20(s0)
    800003c6:	0040006f          	j	800003ca <.LBB2_40+0xb4>
    800003ca:	fec42503          	lw	a0,-20(s0)
    800003ce:	70b2                	ld	ra,296(sp)
    800003d0:	7412                	ld	s0,288(sp)
    800003d2:	6155                	addi	sp,sp,304
    800003d4:	8082                	ret
	...

00000000800003d8 <XVect_mult_Start>:
    800003d8:	1101                	addi	sp,sp,-32
    800003da:	ec06                	sd	ra,24(sp)
    800003dc:	e822                	sd	s0,16(sp)
    800003de:	1000                	addi	s0,sp,32
    800003e0:	fea43423          	sd	a0,-24(s0)
    800003e4:	fe843503          	ld	a0,-24(s0)
    800003e8:	6108                	ld	a0,0(a0)
    800003ea:	00056503          	lwu	a0,0(a0)
    800003ee:	08057513          	andi	a0,a0,128
    800003f2:	fea42223          	sw	a0,-28(s0)
    800003f6:	fe442503          	lw	a0,-28(s0)
    800003fa:	00156513          	ori	a0,a0,1
    800003fe:	fe843583          	ld	a1,-24(s0)
    80000402:	618c                	ld	a1,0(a1)
    80000404:	c188                	sw	a0,0(a1)
    80000406:	60e2                	ld	ra,24(sp)
    80000408:	6442                	ld	s0,16(sp)
    8000040a:	6105                	addi	sp,sp,32
    8000040c:	8082                	ret

000000008000040e <XVect_mult_IsDone>:
    8000040e:	1101                	addi	sp,sp,-32
    80000410:	ec06                	sd	ra,24(sp)
    80000412:	e822                	sd	s0,16(sp)
    80000414:	1000                	addi	s0,sp,32
    80000416:	fea43423          	sd	a0,-24(s0)
    8000041a:	fe843503          	ld	a0,-24(s0)
    8000041e:	6108                	ld	a0,0(a0)
    80000420:	4108                	lw	a0,0(a0)
    80000422:	fea42223          	sw	a0,-28(s0)
    80000426:	fe446503          	lwu	a0,-28(s0)
    8000042a:	8105                	srli	a0,a0,0x1
    8000042c:	8905                	andi	a0,a0,1
    8000042e:	60e2                	ld	ra,24(sp)
    80000430:	6442                	ld	s0,16(sp)
    80000432:	6105                	addi	sp,sp,32
    80000434:	8082                	ret

0000000080000436 <XVect_mult_IsIdle>:
    80000436:	1101                	addi	sp,sp,-32
    80000438:	ec06                	sd	ra,24(sp)
    8000043a:	e822                	sd	s0,16(sp)
    8000043c:	1000                	addi	s0,sp,32
    8000043e:	fea43423          	sd	a0,-24(s0)
    80000442:	fe843503          	ld	a0,-24(s0)
    80000446:	6108                	ld	a0,0(a0)
    80000448:	4108                	lw	a0,0(a0)
    8000044a:	fea42223          	sw	a0,-28(s0)
    8000044e:	fe446503          	lwu	a0,-28(s0)
    80000452:	8109                	srli	a0,a0,0x2
    80000454:	8905                	andi	a0,a0,1
    80000456:	60e2                	ld	ra,24(sp)
    80000458:	6442                	ld	s0,16(sp)
    8000045a:	6105                	addi	sp,sp,32
    8000045c:	8082                	ret

000000008000045e <XVect_mult_IsReady>:
    8000045e:	1101                	addi	sp,sp,-32
    80000460:	ec06                	sd	ra,24(sp)
    80000462:	e822                	sd	s0,16(sp)
    80000464:	1000                	addi	s0,sp,32
    80000466:	fea43423          	sd	a0,-24(s0)
    8000046a:	fe843503          	ld	a0,-24(s0)
    8000046e:	6108                	ld	a0,0(a0)
    80000470:	00056503          	lwu	a0,0(a0)
    80000474:	fea43023          	sd	a0,-32(s0)
    80000478:	fe044503          	lbu	a0,-32(s0)
    8000047c:	8905                	andi	a0,a0,1
    8000047e:	00153513          	seqz	a0,a0
    80000482:	60e2                	ld	ra,24(sp)
    80000484:	6442                	ld	s0,16(sp)
    80000486:	6105                	addi	sp,sp,32
    80000488:	8082                	ret

000000008000048a <XVect_mult_EnableAutoRestart>:
    8000048a:	1101                	addi	sp,sp,-32
    8000048c:	ec06                	sd	ra,24(sp)
    8000048e:	e822                	sd	s0,16(sp)
    80000490:	1000                	addi	s0,sp,32
    80000492:	fea43423          	sd	a0,-24(s0)
    80000496:	fe843503          	ld	a0,-24(s0)
    8000049a:	610c                	ld	a1,0(a0)
    8000049c:	08000513          	li	a0,128
    800004a0:	c188                	sw	a0,0(a1)
    800004a2:	60e2                	ld	ra,24(sp)
    800004a4:	6442                	ld	s0,16(sp)
    800004a6:	6105                	addi	sp,sp,32
    800004a8:	8082                	ret

00000000800004aa <XVect_mult_DisableAutoRestart>:
    800004aa:	1101                	addi	sp,sp,-32
    800004ac:	ec06                	sd	ra,24(sp)
    800004ae:	e822                	sd	s0,16(sp)
    800004b0:	1000                	addi	s0,sp,32
    800004b2:	fea43423          	sd	a0,-24(s0)
    800004b6:	fe843503          	ld	a0,-24(s0)
    800004ba:	610c                	ld	a1,0(a0)
    800004bc:	4501                	li	a0,0
    800004be:	c188                	sw	a0,0(a1)
    800004c0:	60e2                	ld	ra,24(sp)
    800004c2:	6442                	ld	s0,16(sp)
    800004c4:	6105                	addi	sp,sp,32
    800004c6:	8082                	ret

00000000800004c8 <XVect_mult_Set_size>:
    800004c8:	1101                	addi	sp,sp,-32
    800004ca:	ec06                	sd	ra,24(sp)
    800004cc:	e822                	sd	s0,16(sp)
    800004ce:	1000                	addi	s0,sp,32
    800004d0:	fea43423          	sd	a0,-24(s0)
    800004d4:	feb42223          	sw	a1,-28(s0)
    800004d8:	fe442503          	lw	a0,-28(s0)
    800004dc:	fe843583          	ld	a1,-24(s0)
    800004e0:	618c                	ld	a1,0(a1)
    800004e2:	c988                	sw	a0,16(a1)
    800004e4:	60e2                	ld	ra,24(sp)
    800004e6:	6442                	ld	s0,16(sp)
    800004e8:	6105                	addi	sp,sp,32
    800004ea:	8082                	ret

00000000800004ec <XVect_mult_Get_size>:
    800004ec:	1101                	addi	sp,sp,-32
    800004ee:	ec06                	sd	ra,24(sp)
    800004f0:	e822                	sd	s0,16(sp)
    800004f2:	1000                	addi	s0,sp,32
    800004f4:	fea43423          	sd	a0,-24(s0)
    800004f8:	fe843503          	ld	a0,-24(s0)
    800004fc:	6108                	ld	a0,0(a0)
    800004fe:	4908                	lw	a0,16(a0)
    80000500:	fea42223          	sw	a0,-28(s0)
    80000504:	fe442503          	lw	a0,-28(s0)
    80000508:	60e2                	ld	ra,24(sp)
    8000050a:	6442                	ld	s0,16(sp)
    8000050c:	6105                	addi	sp,sp,32
    8000050e:	8082                	ret

0000000080000510 <XVect_mult_Set_a>:
    80000510:	1101                	addi	sp,sp,-32
    80000512:	ec06                	sd	ra,24(sp)
    80000514:	e822                	sd	s0,16(sp)
    80000516:	1000                	addi	s0,sp,32
    80000518:	fea43423          	sd	a0,-24(s0)
    8000051c:	feb43023          	sd	a1,-32(s0)
    80000520:	fe043503          	ld	a0,-32(s0)
    80000524:	fe843583          	ld	a1,-24(s0)
    80000528:	618c                	ld	a1,0(a1)
    8000052a:	cd88                	sw	a0,24(a1)
    8000052c:	fe446503          	lwu	a0,-28(s0)
    80000530:	fe843583          	ld	a1,-24(s0)
    80000534:	618c                	ld	a1,0(a1)
    80000536:	cdc8                	sw	a0,28(a1)
    80000538:	60e2                	ld	ra,24(sp)
    8000053a:	6442                	ld	s0,16(sp)
    8000053c:	6105                	addi	sp,sp,32
    8000053e:	8082                	ret

0000000080000540 <XVect_mult_Get_a>:
    80000540:	1101                	addi	sp,sp,-32
    80000542:	ec06                	sd	ra,24(sp)
    80000544:	e822                	sd	s0,16(sp)
    80000546:	1000                	addi	s0,sp,32
    80000548:	fea43423          	sd	a0,-24(s0)
    8000054c:	fe843503          	ld	a0,-24(s0)
    80000550:	6108                	ld	a0,0(a0)
    80000552:	01856503          	lwu	a0,24(a0)
    80000556:	fea43023          	sd	a0,-32(s0)
    8000055a:	fe843503          	ld	a0,-24(s0)
    8000055e:	6108                	ld	a0,0(a0)
    80000560:	4d48                	lw	a0,28(a0)
    80000562:	02051593          	slli	a1,a0,0x20
    80000566:	fe043503          	ld	a0,-32(s0)
    8000056a:	952e                	add	a0,a0,a1
    8000056c:	fea43023          	sd	a0,-32(s0)
    80000570:	fe043503          	ld	a0,-32(s0)
    80000574:	60e2                	ld	ra,24(sp)
    80000576:	6442                	ld	s0,16(sp)
    80000578:	6105                	addi	sp,sp,32
    8000057a:	8082                	ret

000000008000057c <XVect_mult_Set_b>:
    8000057c:	1101                	addi	sp,sp,-32
    8000057e:	ec06                	sd	ra,24(sp)
    80000580:	e822                	sd	s0,16(sp)
    80000582:	1000                	addi	s0,sp,32
    80000584:	fea43423          	sd	a0,-24(s0)
    80000588:	feb43023          	sd	a1,-32(s0)
    8000058c:	fe043503          	ld	a0,-32(s0)
    80000590:	fe843583          	ld	a1,-24(s0)
    80000594:	618c                	ld	a1,0(a1)
    80000596:	d1c8                	sw	a0,36(a1)
    80000598:	fe446503          	lwu	a0,-28(s0)
    8000059c:	fe843583          	ld	a1,-24(s0)
    800005a0:	618c                	ld	a1,0(a1)
    800005a2:	d588                	sw	a0,40(a1)
    800005a4:	60e2                	ld	ra,24(sp)
    800005a6:	6442                	ld	s0,16(sp)
    800005a8:	6105                	addi	sp,sp,32
    800005aa:	8082                	ret

00000000800005ac <XVect_mult_Get_b>:
    800005ac:	1101                	addi	sp,sp,-32
    800005ae:	ec06                	sd	ra,24(sp)
    800005b0:	e822                	sd	s0,16(sp)
    800005b2:	1000                	addi	s0,sp,32
    800005b4:	fea43423          	sd	a0,-24(s0)
    800005b8:	fe843503          	ld	a0,-24(s0)
    800005bc:	6108                	ld	a0,0(a0)
    800005be:	02456503          	lwu	a0,36(a0)
    800005c2:	fea43023          	sd	a0,-32(s0)
    800005c6:	fe843503          	ld	a0,-24(s0)
    800005ca:	6108                	ld	a0,0(a0)
    800005cc:	5508                	lw	a0,40(a0)
    800005ce:	02051593          	slli	a1,a0,0x20
    800005d2:	fe043503          	ld	a0,-32(s0)
    800005d6:	952e                	add	a0,a0,a1
    800005d8:	fea43023          	sd	a0,-32(s0)
    800005dc:	fe043503          	ld	a0,-32(s0)
    800005e0:	60e2                	ld	ra,24(sp)
    800005e2:	6442                	ld	s0,16(sp)
    800005e4:	6105                	addi	sp,sp,32
    800005e6:	8082                	ret

00000000800005e8 <XVect_mult_Set_c>:
    800005e8:	1101                	addi	sp,sp,-32
    800005ea:	ec06                	sd	ra,24(sp)
    800005ec:	e822                	sd	s0,16(sp)
    800005ee:	1000                	addi	s0,sp,32
    800005f0:	fea43423          	sd	a0,-24(s0)
    800005f4:	feb43023          	sd	a1,-32(s0)
    800005f8:	fe043503          	ld	a0,-32(s0)
    800005fc:	fe843583          	ld	a1,-24(s0)
    80000600:	618c                	ld	a1,0(a1)
    80000602:	d988                	sw	a0,48(a1)
    80000604:	fe446503          	lwu	a0,-28(s0)
    80000608:	fe843583          	ld	a1,-24(s0)
    8000060c:	618c                	ld	a1,0(a1)
    8000060e:	d9c8                	sw	a0,52(a1)
    80000610:	60e2                	ld	ra,24(sp)
    80000612:	6442                	ld	s0,16(sp)
    80000614:	6105                	addi	sp,sp,32
    80000616:	8082                	ret

0000000080000618 <XVect_mult_Get_c>:
    80000618:	1101                	addi	sp,sp,-32
    8000061a:	ec06                	sd	ra,24(sp)
    8000061c:	e822                	sd	s0,16(sp)
    8000061e:	1000                	addi	s0,sp,32
    80000620:	fea43423          	sd	a0,-24(s0)
    80000624:	fe843503          	ld	a0,-24(s0)
    80000628:	6108                	ld	a0,0(a0)
    8000062a:	03056503          	lwu	a0,48(a0)
    8000062e:	fea43023          	sd	a0,-32(s0)
    80000632:	fe843503          	ld	a0,-24(s0)
    80000636:	6108                	ld	a0,0(a0)
    80000638:	5948                	lw	a0,52(a0)
    8000063a:	02051593          	slli	a1,a0,0x20
    8000063e:	fe043503          	ld	a0,-32(s0)
    80000642:	952e                	add	a0,a0,a1
    80000644:	fea43023          	sd	a0,-32(s0)
    80000648:	fe043503          	ld	a0,-32(s0)
    8000064c:	60e2                	ld	ra,24(sp)
    8000064e:	6442                	ld	s0,16(sp)
    80000650:	6105                	addi	sp,sp,32
    80000652:	8082                	ret

0000000080000654 <XVect_mult_InterruptGlobalEnable>:
    80000654:	1101                	addi	sp,sp,-32
    80000656:	ec06                	sd	ra,24(sp)
    80000658:	e822                	sd	s0,16(sp)
    8000065a:	1000                	addi	s0,sp,32
    8000065c:	fea43423          	sd	a0,-24(s0)
    80000660:	fe843503          	ld	a0,-24(s0)
    80000664:	610c                	ld	a1,0(a0)
    80000666:	4505                	li	a0,1
    80000668:	c1c8                	sw	a0,4(a1)
    8000066a:	60e2                	ld	ra,24(sp)
    8000066c:	6442                	ld	s0,16(sp)
    8000066e:	6105                	addi	sp,sp,32
    80000670:	8082                	ret

0000000080000672 <XVect_mult_InterruptGlobalDisable>:
    80000672:	1101                	addi	sp,sp,-32
    80000674:	ec06                	sd	ra,24(sp)
    80000676:	e822                	sd	s0,16(sp)
    80000678:	1000                	addi	s0,sp,32
    8000067a:	fea43423          	sd	a0,-24(s0)
    8000067e:	fe843503          	ld	a0,-24(s0)
    80000682:	610c                	ld	a1,0(a0)
    80000684:	4501                	li	a0,0
    80000686:	c1c8                	sw	a0,4(a1)
    80000688:	60e2                	ld	ra,24(sp)
    8000068a:	6442                	ld	s0,16(sp)
    8000068c:	6105                	addi	sp,sp,32
    8000068e:	8082                	ret

0000000080000690 <XVect_mult_InterruptEnable>:
    80000690:	1101                	addi	sp,sp,-32
    80000692:	ec06                	sd	ra,24(sp)
    80000694:	e822                	sd	s0,16(sp)
    80000696:	1000                	addi	s0,sp,32
    80000698:	fea43423          	sd	a0,-24(s0)
    8000069c:	feb42223          	sw	a1,-28(s0)
    800006a0:	fe843503          	ld	a0,-24(s0)
    800006a4:	6108                	ld	a0,0(a0)
    800006a6:	4508                	lw	a0,8(a0)
    800006a8:	fea42023          	sw	a0,-32(s0)
    800006ac:	fe042503          	lw	a0,-32(s0)
    800006b0:	fe442583          	lw	a1,-28(s0)
    800006b4:	8d4d                	or	a0,a0,a1
    800006b6:	fe843583          	ld	a1,-24(s0)
    800006ba:	618c                	ld	a1,0(a1)
    800006bc:	c588                	sw	a0,8(a1)
    800006be:	60e2                	ld	ra,24(sp)
    800006c0:	6442                	ld	s0,16(sp)
    800006c2:	6105                	addi	sp,sp,32
    800006c4:	8082                	ret

00000000800006c6 <XVect_mult_InterruptDisable>:
    800006c6:	1101                	addi	sp,sp,-32
    800006c8:	ec06                	sd	ra,24(sp)
    800006ca:	e822                	sd	s0,16(sp)
    800006cc:	1000                	addi	s0,sp,32
    800006ce:	fea43423          	sd	a0,-24(s0)
    800006d2:	feb42223          	sw	a1,-28(s0)
    800006d6:	fe843503          	ld	a0,-24(s0)
    800006da:	6108                	ld	a0,0(a0)
    800006dc:	4508                	lw	a0,8(a0)
    800006de:	fea42023          	sw	a0,-32(s0)
    800006e2:	fe042503          	lw	a0,-32(s0)
    800006e6:	fe442583          	lw	a1,-28(s0)
    800006ea:	fff5c593          	not	a1,a1
    800006ee:	8d6d                	and	a0,a0,a1
    800006f0:	fe843583          	ld	a1,-24(s0)
    800006f4:	618c                	ld	a1,0(a1)
    800006f6:	c588                	sw	a0,8(a1)
    800006f8:	60e2                	ld	ra,24(sp)
    800006fa:	6442                	ld	s0,16(sp)
    800006fc:	6105                	addi	sp,sp,32
    800006fe:	8082                	ret

0000000080000700 <XVect_mult_InterruptClear>:
    80000700:	1101                	addi	sp,sp,-32
    80000702:	ec06                	sd	ra,24(sp)
    80000704:	e822                	sd	s0,16(sp)
    80000706:	1000                	addi	s0,sp,32
    80000708:	fea43423          	sd	a0,-24(s0)
    8000070c:	feb42223          	sw	a1,-28(s0)
    80000710:	fe843583          	ld	a1,-24(s0)
    80000714:	fe442503          	lw	a0,-28(s0)
    80000718:	618c                	ld	a1,0(a1)
    8000071a:	c5c8                	sw	a0,12(a1)
    8000071c:	60e2                	ld	ra,24(sp)
    8000071e:	6442                	ld	s0,16(sp)
    80000720:	6105                	addi	sp,sp,32
    80000722:	8082                	ret

0000000080000724 <XVect_mult_InterruptGetEnabled>:
    80000724:	1101                	addi	sp,sp,-32
    80000726:	ec06                	sd	ra,24(sp)
    80000728:	e822                	sd	s0,16(sp)
    8000072a:	1000                	addi	s0,sp,32
    8000072c:	fea43423          	sd	a0,-24(s0)
    80000730:	fe843503          	ld	a0,-24(s0)
    80000734:	6108                	ld	a0,0(a0)
    80000736:	4508                	lw	a0,8(a0)
    80000738:	60e2                	ld	ra,24(sp)
    8000073a:	6442                	ld	s0,16(sp)
    8000073c:	6105                	addi	sp,sp,32
    8000073e:	8082                	ret

0000000080000740 <XVect_mult_InterruptGetStatus>:
    80000740:	1101                	addi	sp,sp,-32
    80000742:	ec06                	sd	ra,24(sp)
    80000744:	e822                	sd	s0,16(sp)
    80000746:	1000                	addi	s0,sp,32
    80000748:	fea43423          	sd	a0,-24(s0)
    8000074c:	fe843503          	ld	a0,-24(s0)
    80000750:	6108                	ld	a0,0(a0)
    80000752:	4548                	lw	a0,12(a0)
    80000754:	60e2                	ld	ra,24(sp)
    80000756:	6442                	ld	s0,16(sp)
    80000758:	6105                	addi	sp,sp,32
    8000075a:	8082                	ret

000000008000075c <XVect_mult_Initialize>:
    8000075c:	1101                	addi	sp,sp,-32
    8000075e:	ec06                	sd	ra,24(sp)
    80000760:	e822                	sd	s0,16(sp)
    80000762:	1000                	addi	s0,sp,32
    80000764:	fea43423          	sd	a0,-24(s0)
    80000768:	feb43023          	sd	a1,-32(s0)
    8000076c:	fe843583          	ld	a1,-24(s0)
    80000770:	60001537          	lui	a0,0x60001
    80000774:	0506                	slli	a0,a0,0x1
    80000776:	e188                	sd	a0,0(a1)
    80000778:	4501                	li	a0,0
    8000077a:	60e2                	ld	ra,24(sp)
    8000077c:	6442                	ld	s0,16(sp)
    8000077e:	6105                	addi	sp,sp,32
    80000780:	8082                	ret

0000000080000782 <XVect_mult_Release>:
    80000782:	1101                	addi	sp,sp,-32
    80000784:	ec06                	sd	ra,24(sp)
    80000786:	e822                	sd	s0,16(sp)
    80000788:	1000                	addi	s0,sp,32
    8000078a:	fea43423          	sd	a0,-24(s0)
    8000078e:	4501                	li	a0,0
    80000790:	60e2                	ld	ra,24(sp)
    80000792:	6442                	ld	s0,16(sp)
    80000794:	6105                	addi	sp,sp,32
    80000796:	8082                	ret
