; ModuleID = '/workspace/examples/stencil2d/temp/test.bc'
source_filename = "llvm-link"
target datalayout = "e-m:e-i64:64-i128:128-i256:256-i512:512-i1024:1024-i2048:2048-i4096:4096-n8:16:32:64-S128-v16:16-v24:32-v32:32-v48:64-v96:128-v192:256-v256:256-v512:512-v1024:1024"
target triple = "fpga64-xilinx-none"
%struct.Cap = type { i32, i32, i1, i1 }
%"struct.ap_uint<32>" = type { %"struct.ap_int_base<32, false>" }
%"struct.ap_int_base<32, false>" = type { %"struct.ssdm_int<32, false>" }
%"struct.ssdm_int<32, false>" = type { i32 }
%"struct.ap_uint<64>" = type { %"struct.ap_int_base<64, false>" }
%"struct.ap_int_base<64, false>" = type { %"struct.ssdm_int<64, false>" }
%"struct.ssdm_int<64, false>" = type { i64 }
%"struct.ap_concat_ref<32, ap_int_base<32, false>, 32, ap_int_base<32, false> >" = type { %"struct.ap_int_base<32, false>"*, %"struct.ap_int_base<32, false>"* }
%"struct.ap_range_ref<64, false>" = type { %"struct.ap_int_base<64, false>"*, i32, i32 }
%"struct.ap_uint<9>" = type { %"struct.ap_int_base<9, false>" }
%"struct.ap_int_base<9, false>" = type { %"struct.ssdm_int<9, false>" }
%"struct.ssdm_int<9, false>" = type { i9 }
%"struct.ap_uint<3>" = type { %"struct.ap_int_base<3, false>" }
%"struct.ap_int_base<3, false>" = type { %"struct.ssdm_int<3, false>" }
%"struct.ssdm_int<3, false>" = type { i3 }
%"struct.ap_uint<11>" = type { %"struct.ap_int_base<11, false>" }
%"struct.ap_int_base<11, false>" = type { %"struct.ssdm_int<11, false>" }
%"struct.ssdm_int<11, false>" = type { i11 }
%"struct.ap_uint<6>" = type { %"struct.ap_int_base<6, false>" }
%"struct.ap_int_base<6, false>" = type { %"struct.ssdm_int<6, false>" }
%"struct.ssdm_int<6, false>" = type { i6 }
%"struct.ap_uint<14>" = type { %"struct.ap_int_base<14, false>" }
%"struct.ap_int_base<14, false>" = type { %"struct.ssdm_int<14, false>" }
%"struct.ssdm_int<14, false>" = type { i14 }
%"struct.ap_concat_ref<9, ap_int_base<9, false>, 3, ap_int_base<3, false> >" = type { %"struct.ap_int_base<9, false>"*, %"struct.ap_int_base<3, false>"* }
%"struct.ap_concat_ref<11, ap_int_base<11, false>, 3, ap_int_base<3, false> >" = type { %"struct.ap_int_base<11, false>"*, %"struct.ap_int_base<3, false>"* }
%"struct.ap_uint<12>" = type { %"struct.ap_int_base<12, false>" }
%"struct.ap_int_base<12, false>" = type { %"struct.ssdm_int<12, false>" }
%"struct.ssdm_int<12, false>" = type { i12 }
%"struct.ap_range_ref<14, false>" = type { %"struct.ap_int_base<14, false>"*, i32, i32 }
%"struct.ap_concat_ref<3, ap_int_base<3, false>, 3, ap_int_base<3, false> >" = type { %"struct.ap_int_base<3, false>"*, %"struct.ap_int_base<3, false>"* }
%"struct.ap_uint<2>" = type { %"struct.ap_int_base<2, false>" }
%"struct.ap_int_base<2, false>" = type { %"struct.ssdm_int<2, false>" }
%"struct.ssdm_int<2, false>" = type { i2 }
%"struct.ap_int<34>" = type { %"struct.ap_int_base<34, true>" }
%"struct.ap_int_base<34, true>" = type { %"struct.ssdm_int<34, true>" }
%"struct.ssdm_int<34, true>" = type { i34 }
%"struct.ap_int<33>" = type { %"struct.ap_int_base<33, true>" }
%"struct.ap_int_base<33, true>" = type { %"struct.ssdm_int<33, true>" }
%"struct.ssdm_int<33, true>" = type { i33 }
%"struct.ap_concat_ref<2, ap_int_base<2, false>, 14, ap_range_ref<14, false> >" = type { %"struct.ap_int_base<2, false>"*, %"struct.ap_range_ref<14, false>"* }
%"struct.ap_int<65>" = type { %"struct.ap_int_base<65, true>" }
%"struct.ap_int_base<65, true>" = type { %"struct.ssdm_int<65, true>" }
%"struct.ssdm_int<65, true>" = type { i65 }
%"struct.ap_int_base<1, false>" = type { %"struct.ssdm_int<1, false>" }
%"struct.ssdm_int<1, false>" = type { i1 }
%"struct.ap_int_base<16, false>" = type { %"struct.ssdm_int<16, false>" }
%"struct.ssdm_int<16, false>" = type { i16 }

$_ZN11ap_int_baseILi32ELb0EEcmILi32ELb0EEE13ap_concat_refILi32ES0_XT_ES_IXT_EXT0_EEERS3_ = comdat any

$_ZN7ap_uintILi64EEC2ILi32E11ap_int_baseILi32ELb0EELi32ES3_EERK13ap_concat_refIXT_ET0_XT1_ET2_E = comdat any

$_ZeOILi64ELb0EER11ap_int_baseIXT_EXT0_EES2_l = comdat any

$_ZN11ap_int_baseILi64ELb0EE5rangeEii = comdat any

$_ZNK12ap_range_refILi64ELb0EEcvyEv = comdat any

$_ZneILi64ELb0EEbRK12ap_range_refIXT_EXT0_EEi = comdat any

$_ZN7ap_uintILi9EEC2ILi64ELb0EEERK12ap_range_refIXT_EXT0_EE = comdat any

$_ZN7ap_uintILi3EEC2ILi64ELb0EEERK12ap_range_refIXT_EXT0_EE = comdat any

$_ZN7ap_uintILi11EEC2ILi64ELb0EEERK12ap_range_refIXT_EXT0_EE = comdat any

$_ZN7ap_uintILi6EEC2Ei = comdat any

$_ZN7ap_uintILi14EEC2Ei = comdat any

$_ZN11ap_int_baseILi9ELb0EEcmILi3ELb0EEE13ap_concat_refILi9ES0_XT_ES_IXT_EXT0_EEERS3_ = comdat any

$_ZN7ap_uintILi14EEC2ILi9E11ap_int_baseILi9ELb0EELi3ES2_ILi3ELb0EEEERK13ap_concat_refIXT_ET0_XT1_ET2_E = comdat any

$_ZN11ap_int_baseILi11ELb0EEcmILi3ELb0EEE13ap_concat_refILi11ES0_XT_ES_IXT_EXT0_EEERS3_ = comdat any

$_ZN7ap_uintILi14EEC2ILi11E11ap_int_baseILi11ELb0EELi3ES2_ILi3ELb0EEEERK13ap_concat_refIXT_ET0_XT1_ET2_E = comdat any

$_ZN11ap_int_baseILi14ELb0EE5rangeEii = comdat any

$_ZN7ap_uintILi12EEC2ILi14ELb0EEERK12ap_range_refIXT_EXT0_EE = comdat any

$_ZNK11ap_int_baseILi12ELb0EEltILi12ELb0EEEbRKS_IXT_EXT0_EE = comdat any

$_ZN11ap_int_baseILi3ELb0EEcmILi3ELb0EEE13ap_concat_refILi3ES0_XT_ES_IXT_EXT0_EEERS3_ = comdat any

$_ZN7ap_uintILi6EEC2ILi3E11ap_int_baseILi3ELb0EELi3ES3_EERK13ap_concat_refIXT_ET0_XT1_ET2_E = comdat any

$_ZlsILi9ELb0EEN11ap_int_baseIXT_EXT0_EE5RTypeIXT_EXT0_EE4arg1ERKS1_i = comdat any

$_ZN7ap_uintILi14EEC2ILi9EEERKS_IXT_EE = comdat any

$_ZlsILi11ELb0EEN11ap_int_baseIXT_EXT0_EE5RTypeIXT_EXT0_EE4arg1ERKS1_i = comdat any

$_ZN7ap_uintILi14EEC2ILi11EEERKS_IXT_EE = comdat any

$_ZN7ap_uintILi2EEC2ILi14ELb0EEERK12ap_range_refIXT_EXT0_EE = comdat any

$"_ZplILi2ELb0EEN11ap_int_baseIXT_EXT0_EE5RTypeIXL3$_032EEXLb1EEE4plusERKS1_i" = comdat any

$"_ZplILi33ELb1EEN11ap_int_baseIXT_EXT0_EE5RTypeIXL3$_032EEXLb1EEE4plusERKS1_i" = comdat any

$_ZN7ap_uintILi2EEC2ILi34EEERK6ap_intIXT_EE = comdat any

$_ZaNILi2ELb0EER11ap_int_baseIXT_EXT0_EES2_i = comdat any

$_ZaNILi14ELb0EER11ap_int_baseIXT_EXT0_EES2_i = comdat any

$_ZNK11ap_int_baseILi2ELb0EEcmILi14ELb0EEE13ap_concat_refILi2ES0_XT_E12ap_range_refIXT_EXT0_EEERKS4_ = comdat any

$_ZN7ap_uintILi14EEC2ILi2E11ap_int_baseILi2ELb0EELi14E12ap_range_refILi14ELb0EEEERK13ap_concat_refIXT_ET0_XT1_ET2_E = comdat any

$"_ZplILi6ELb0EEN11ap_int_baseIXT_EXT0_EE5RTypeIXL3$_032EEXLb1EEE4plusERKS1_i" = comdat any

$_ZNK11ap_int_baseILi64ELb0EErsILi33EEE7ap_uintILi64EERKS_IXT_ELb1EE = comdat any

$"_ZanILi64ELb0EEN11ap_int_baseIXT_EXT0_EE5RTypeIXL3$_032EEXLb1EEE5logicERKS1_i" = comdat any

$_ZN7ap_uintILi3EEC2ILi65EEERK6ap_intIXT_EE = comdat any

$_ZN7ap_uintILi3EEC2ILi14ELb0EEERK12ap_range_refIXT_EXT0_EE = comdat any

$"_ZmiILi3ELb0EEN11ap_int_baseIXT_EXT0_EE5RTypeIXL3$_032EEXLb1EEE5minusERKS1_i" = comdat any

$_ZN7ap_uintILi3EEC2ILi33EEERK6ap_intIXT_EE = comdat any

$_ZN6ap_intILi2EEC2Ei = comdat any

$_ZNK11ap_int_baseILi3ELb0EEltILi3ELb0EEEbRKS_IXT_EXT0_EE = comdat any

$_ZNK11ap_int_baseILi64ELb0EEcvyEv = comdat any

$"_ZplILi2ELb1EEN11ap_int_baseIXT_EXT0_EE5RTypeIXL3$_032EEXLb0EEE4plusEjRKS1_" = comdat any

$_ZNK11ap_int_baseILi34ELb1EElsILi33EEE6ap_intILi34EERKS_IXT_ELb1EE = comdat any

$"_ZanILi14ELb0EEN11ap_int_baseIXT_EXT0_EE5RTypeIXL3$_032EEXLb1EEE5logicERKS1_i" = comdat any

$_ZNK11ap_int_baseILi32ELb1EEcvxEv = comdat any

$_ZNK11ap_int_baseILi6ELb0EEcvyEv = comdat any

$"_ZorILi34ELb1EEN11ap_int_baseIXT_EXT0_EE5RTypeIXL3$_032EEXLb0EEE5logicERKS1_j" = comdat any

$_ZNK11ap_int_baseILi34ELb1EEcvxEv = comdat any

$"_ZmiILi64ELb0EEN11ap_int_baseIXT_EXT0_EE5RTypeIXL3$_032EEXLb0EEE5minusEjRKS1_" = comdat any

$_ZNK11ap_int_baseILi65ELb1EEcvxEv = comdat any

$_ZN11ap_int_baseILi32ELb0EEC2Ej = comdat any

$_ZmiILi32ELb0ELi64ELb0EEN11ap_int_baseIXT_EXT0_EE5RTypeIXT1_EXT2_EE5minusERKS1_RKS0_IXT1_EXT2_EE = comdat any

$_ZN11ap_int_baseILi65ELb1EEC2ILi32ELb0EEERKS_IXT_EXT0_EE = comdat any

$_ZN11ap_int_baseILi65ELb1EEC2ILi64ELb0EEERKS_IXT_EXT0_EE = comdat any

$_ZN11ap_int_baseILi65ELb1EEC2Ei = comdat any

$_ZN6ap_intILi65EEC2ILi65ELb1EEERK11ap_int_baseIXT_EXT0_EE = comdat any

$_ZN8ssdm_intILi65ELb1EEC2EDq65_i = comdat any

$_ZN8ssdm_intILi32ELb0EEC2Ej = comdat any

$_ZorILi34ELb1ELi32ELb0EEN11ap_int_baseIXT_EXT0_EE5RTypeIXT1_EXT2_EE5logicERKS1_RKS0_IXT1_EXT2_EE = comdat any

$_ZN11ap_int_baseILi34ELb1EEC2ILi32ELb0EEERKS_IXT_EXT0_EE = comdat any

$_ZN11ap_int_baseILi34ELb1EEC2Ei = comdat any

$_ZN6ap_intILi34EEC2ILi34ELb1EEERK11ap_int_baseIXT_EXT0_EE = comdat any

$_ZN8ssdm_intILi34ELb1EEC2EDq34_i = comdat any

$_ZN11ap_int_baseILi32ELb1EEC2Ei = comdat any

$_ZanILi14ELb0ELi32ELb1EEN11ap_int_baseIXT_EXT0_EE5RTypeIXT1_EXT2_EE5logicERKS1_RKS0_IXT1_EXT2_EE = comdat any

$_ZN11ap_int_baseILi32ELb1EEC2ILi14ELb0EEERKS_IXT_EXT0_EE = comdat any

$_ZN6ap_intILi32EEC2ILi32ELb1EEERK11ap_int_baseIXT_EXT0_EE = comdat any

$_ZN8ssdm_intILi32ELb1EEC2Ei = comdat any

$_ZN11ap_int_baseILi33ELb0EEC2ILi33ELb1EEERKS_IXT_EXT0_EE = comdat any

$_ZNK11ap_int_baseILi33ELb1EEngEv = comdat any

$_ZN11ap_int_baseILi33ELb0EEaSILi34ELb1EEERS0_RKS_IXT_EXT0_EE = comdat any

$_ZNK11ap_int_baseILi34ELb1EErsILi33EEE6ap_intILi34EERKS_IXT_ELb0EE = comdat any

$_ZNK11ap_int_baseILi34ELb1EElsILi33EEE6ap_intILi34EERKS_IXT_ELb0EE = comdat any

$_ZNK11ap_int_baseILi33ELb0EE7to_uintEv = comdat any

$_ZN11ap_int_baseILi1ELb0EEC2Ei = comdat any

$_ZmiILi1ELb0ELi33ELb1EEN11ap_int_baseIXT_EXT0_EE5RTypeIXT1_EXT2_EE5minusERKS1_RKS0_IXT1_EXT2_EE = comdat any

$_ZN11ap_int_baseILi34ELb1EEC2ILi1ELb0EEERKS_IXT_EXT0_EE = comdat any

$_ZN11ap_int_baseILi34ELb1EEC2ILi33ELb1EEERKS_IXT_EXT0_EE = comdat any

$_ZN8ssdm_intILi1ELb0EEC2EDq1_j = comdat any

$_ZN8ssdm_intILi33ELb0EEC2EDq33_j = comdat any

$_ZplILi32ELb0ELi2ELb1EEN11ap_int_baseIXT_EXT0_EE5RTypeIXT1_EXT2_EE4plusERKS1_RKS0_IXT1_EXT2_EE = comdat any

$_ZN11ap_int_baseILi34ELb1EEC2ILi2ELb1EEERKS_IXT_EXT0_EE = comdat any

$_ZN11ap_int_baseILi2ELb1EEC2Ei = comdat any

$_ZN11ap_int_baseILi2ELb1EE18checkOverflowBaseCIiEEvT_ = comdat any

$_ZN8ssdm_intILi2ELb1EEC2EDq2_i = comdat any

$_ZN11ap_int_baseILi3ELb0EEC2ILi33ELb1EEERKS_IXT_EXT0_EE = comdat any

$_ZNK11ap_int_baseILi33ELb1EE17checkOverflowCsimEibb = comdat any

$_ZN8ssdm_intILi3ELb0EEC2EDq3_j = comdat any

$_ZmiILi3ELb0ELi32ELb1EEN11ap_int_baseIXT_EXT0_EE5RTypeIXT1_EXT2_EE5minusERKS1_RKS0_IXT1_EXT2_EE = comdat any

$_ZN11ap_int_baseILi33ELb1EEC2ILi3ELb0EEERKS_IXT_EXT0_EE = comdat any

$_ZN11ap_int_baseILi33ELb1EEC2ILi32ELb1EEERKS_IXT_EXT0_EE = comdat any

$_ZN11ap_int_baseILi33ELb1EEC2Ei = comdat any

$_ZN6ap_intILi33EEC2ILi33ELb1EEERK11ap_int_baseIXT_EXT0_EE = comdat any

$_ZN8ssdm_intILi33ELb1EEC2EDq33_i = comdat any

$_ZN11ap_int_baseILi3ELb0EEC2ILi14ELb0EEERK12ap_range_refIXT_EXT0_EE = comdat any

$_ZN8ssdm_intILi3ELb0EEC2Ev = comdat any

$_ZNK12ap_range_refILi14ELb0EE3getEv = comdat any

$_ZN11ap_int_baseILi14ELb0EEC2Ev = comdat any

$_ZN8ssdm_intILi14ELb0EEC2Ev = comdat any

$_ZN11ap_int_baseILi3ELb0EEC2ILi65ELb1EEERKS_IXT_EXT0_EE = comdat any

$_ZNK11ap_int_baseILi65ELb1EE17checkOverflowCsimEibb = comdat any

$_ZanILi64ELb0ELi32ELb1EEN11ap_int_baseIXT_EXT0_EE5RTypeIXT1_EXT2_EE5logicERKS1_RKS0_IXT1_EXT2_EE = comdat any

$_ZN11ap_int_baseILi65ELb1EEC2ILi32ELb1EEERKS_IXT_EXT0_EE = comdat any

$_ZNK11ap_int_baseILi64ELb0EElsILi33EEE7ap_uintILi64EERKS_IXT_ELb0EE = comdat any

$_ZNK11ap_int_baseILi64ELb0EErsILi33EEE7ap_uintILi64EERKS_IXT_ELb0EE = comdat any

$_ZN11ap_int_baseILi64ELb0EEC2Ei = comdat any

$_ZN7ap_uintILi64EEC2ILi64ELb0EEERK11ap_int_baseIXT_EXT0_EE = comdat any

$_ZN8ssdm_intILi64ELb0EEC2Em = comdat any

$_ZplILi6ELb0ELi32ELb1EEN11ap_int_baseIXT_EXT0_EE5RTypeIXT1_EXT2_EE4plusERKS1_RKS0_IXT1_EXT2_EE = comdat any

$_ZN11ap_int_baseILi33ELb1EEC2ILi6ELb0EEERKS_IXT_EXT0_EE = comdat any

$_ZN11ap_int_baseILi14ELb0EEC2ILi2ES_ILi2ELb0EELi14E12ap_range_refILi14ELb0EEEERK13ap_concat_refIXT_ET0_XT1_ET2_E = comdat any

$_ZNK13ap_concat_refILi2E11ap_int_baseILi2ELb0EELi14E12ap_range_refILi14ELb0EEE3getEv = comdat any

$_ZN11ap_int_baseILi16ELb0EEC2Ei = comdat any

$_ZNK11ap_int_baseILi2ELb0EE6lengthEv = comdat any

$_ZNK12ap_range_refILi14ELb0EE6lengthEv = comdat any

$_ZN11ap_int_baseILi14ELb0EEC2ILi14ELb0EEERK12ap_range_refIXT_EXT0_EE = comdat any

$_ZN8ssdm_intILi16ELb0EEC2Et = comdat any

$_ZN13ap_concat_refILi2E11ap_int_baseILi2ELb0EELi14E12ap_range_refILi14ELb0EEEC2ERS1_RS3_ = comdat any

$_ZN11ap_int_baseILi14ELb0EEaNILi32ELb1EEERS0_RKS_IXT_EXT0_EE = comdat any

$_ZN11ap_int_baseILi2ELb0EEaNILi32ELb1EEERS0_RKS_IXT_EXT0_EE = comdat any

$_ZN11ap_int_baseILi2ELb0EEC2ILi34ELb1EEERKS_IXT_EXT0_EE = comdat any

$_ZNK11ap_int_baseILi34ELb1EE17checkOverflowCsimEibb = comdat any

$_ZN8ssdm_intILi2ELb0EEC2EDq2_j = comdat any

$_ZplILi33ELb1ELi32ELb1EEN11ap_int_baseIXT_EXT0_EE5RTypeIXT1_EXT2_EE4plusERKS1_RKS0_IXT1_EXT2_EE = comdat any

$_ZN11ap_int_baseILi34ELb1EEC2ILi32ELb1EEERKS_IXT_EXT0_EE = comdat any

$_ZplILi2ELb0ELi32ELb1EEN11ap_int_baseIXT_EXT0_EE5RTypeIXT1_EXT2_EE4plusERKS1_RKS0_IXT1_EXT2_EE = comdat any

$_ZN11ap_int_baseILi33ELb1EEC2ILi2ELb0EEERKS_IXT_EXT0_EE = comdat any

$_ZN11ap_int_baseILi2ELb0EEC2ILi14ELb0EEERK12ap_range_refIXT_EXT0_EE = comdat any

$_ZN8ssdm_intILi2ELb0EEC2Ev = comdat any

$_ZN11ap_int_baseILi14ELb0EEC2ILi11ELb0EEERKS_IXT_EXT0_EE = comdat any

$_ZNK11ap_int_baseILi11ELb0EE17checkOverflowCsimEibb = comdat any

$_ZN8ssdm_intILi14ELb0EEC2EDq14_j = comdat any

$_ZN11ap_int_baseILi11ELb0EEC2Ei = comdat any

$_ZN7ap_uintILi11EEC2ILi11ELb0EEERK11ap_int_baseIXT_EXT0_EE = comdat any

$_ZN8ssdm_intILi11ELb0EEC2EDq11_j = comdat any

$_ZN11ap_int_baseILi14ELb0EEC2ILi9ELb0EEERKS_IXT_EXT0_EE = comdat any

$_ZNK11ap_int_baseILi9ELb0EE17checkOverflowCsimEibb = comdat any

$_ZN11ap_int_baseILi9ELb0EEC2Ei = comdat any

$_ZN7ap_uintILi9EEC2ILi9ELb0EEERK11ap_int_baseIXT_EXT0_EE = comdat any

$_ZN8ssdm_intILi9ELb0EEC2EDq9_j = comdat any

$_ZN11ap_int_baseILi6ELb0EEC2ILi3ES_ILi3ELb0EELi3ES2_EERK13ap_concat_refIXT_ET0_XT1_ET2_E = comdat any

$_ZN8ssdm_intILi6ELb0EEC2Ev = comdat any

$_ZNK13ap_concat_refILi3E11ap_int_baseILi3ELb0EELi3ES1_E3getEv = comdat any

$_ZN11ap_int_baseILi6ELb0EEC2Ei = comdat any

$_ZNK11ap_int_baseILi3ELb0EE6lengthEv = comdat any

$_ZN8ssdm_intILi6ELb0EEC2EDq6_j = comdat any

$_ZN13ap_concat_refILi3E11ap_int_baseILi3ELb0EELi3ES1_EC2ERS1_S3_ = comdat any

$_ZN11ap_int_baseILi12ELb0EEC2ILi14ELb0EEERK12ap_range_refIXT_EXT0_EE = comdat any

$_ZN8ssdm_intILi12ELb0EEC2Ev = comdat any

$_ZN12ap_range_refILi14ELb0EEC2EP11ap_int_baseILi14ELb0EEii = comdat any

$_ZN11ap_int_baseILi14ELb0EEC2ILi11ES_ILi11ELb0EELi3ES_ILi3ELb0EEEERK13ap_concat_refIXT_ET0_XT1_ET2_E = comdat any

$_ZNK13ap_concat_refILi11E11ap_int_baseILi11ELb0EELi3ES0_ILi3ELb0EEE3getEv = comdat any

$_ZN11ap_int_baseILi14ELb0EEC2Ei = comdat any

$_ZNK11ap_int_baseILi11ELb0EE6lengthEv = comdat any

$_ZN13ap_concat_refILi11E11ap_int_baseILi11ELb0EELi3ES0_ILi3ELb0EEEC2ERS1_RS2_ = comdat any

$_ZN11ap_int_baseILi14ELb0EEC2ILi9ES_ILi9ELb0EELi3ES_ILi3ELb0EEEERK13ap_concat_refIXT_ET0_XT1_ET2_E = comdat any

$_ZNK13ap_concat_refILi9E11ap_int_baseILi9ELb0EELi3ES0_ILi3ELb0EEE3getEv = comdat any

$_ZN11ap_int_baseILi12ELb0EEC2Ei = comdat any

$_ZNK11ap_int_baseILi9ELb0EE6lengthEv = comdat any

$_ZN8ssdm_intILi12ELb0EEC2EDq12_j = comdat any

$_ZN13ap_concat_refILi9E11ap_int_baseILi9ELb0EELi3ES0_ILi3ELb0EEEC2ERS1_RS2_ = comdat any

$_ZN11ap_int_baseILi14ELb0EE18checkOverflowBaseCIiEEvT_ = comdat any

$_ZN11ap_int_baseILi6ELb0EE18checkOverflowBaseCIiEEvT_ = comdat any

$_ZN11ap_int_baseILi11ELb0EEC2ILi64ELb0EEERK12ap_range_refIXT_EXT0_EE = comdat any

$_ZN8ssdm_intILi11ELb0EEC2Ev = comdat any

$_ZNK12ap_range_refILi64ELb0EE3getEv = comdat any

$_ZN11ap_int_baseILi64ELb0EEC2Ev = comdat any

$_ZN8ssdm_intILi64ELb0EEC2Ev = comdat any

$_ZN11ap_int_baseILi3ELb0EEC2ILi64ELb0EEERK12ap_range_refIXT_EXT0_EE = comdat any

$_ZN11ap_int_baseILi9ELb0EEC2ILi64ELb0EEERK12ap_range_refIXT_EXT0_EE = comdat any

$_ZN8ssdm_intILi9ELb0EEC2Ev = comdat any

$_ZN11ap_int_baseILi64ELb0EEC2ILi64ELb0EEERK12ap_range_refIXT_EXT0_EE = comdat any

$_ZNK11ap_int_baseILi64ELb0EEneILi32ELb1EEEbRKS_IXT_EXT0_EE = comdat any

$_ZNK12ap_range_refILi64ELb0EE9to_uint64Ev = comdat any

$_ZN12ap_range_refILi64ELb0EEC2EP11ap_int_baseILi64ELb0EEii = comdat any

$_ZN11ap_int_baseILi64ELb1EEC2El = comdat any

$_ZN11ap_int_baseILi64ELb0EEeOILi64ELb1EEERS0_RKS_IXT_EXT0_EE = comdat any

$_ZN8ssdm_intILi64ELb1EEC2El = comdat any

$_ZN11ap_int_baseILi64ELb0EEC2ILi32ES_ILi32ELb0EELi32ES2_EERK13ap_concat_refIXT_ET0_XT1_ET2_E = comdat any

$_ZNK13ap_concat_refILi32E11ap_int_baseILi32ELb0EELi32ES1_E3getEv = comdat any

$_ZNK11ap_int_baseILi32ELb0EE6lengthEv = comdat any

$_ZN13ap_concat_refILi32E11ap_int_baseILi32ELb0EELi32ES1_EC2ERS1_S3_ = comdat any

$_ZN7ap_uintILi32EEC2Ej = comdat any

$_ZN11ap_int_baseILi32ELb0EE18checkOverflowBaseCIjEEvT_ = comdat any

$"_ZplILi3ELb0EEN11ap_int_baseIXT_EXT0_EE5RTypeIXL3$_032EEXLb1EEE4plusEiRKS1_" = comdat any

$_ZleILi33ELb1EEbRK11ap_int_baseIXT_EXT0_EEi = comdat any

$_ZNK11ap_int_baseILi33ELb1EEleILi32ELb1EEEbRKS_IXT_EXT0_EE = comdat any

$_ZplILi32ELb1ELi3ELb0EEN11ap_int_baseIXT_EXT0_EE5RTypeIXT1_EXT2_EE4plusERKS1_RKS0_IXT1_EXT2_EE = comdat any

$_ZN7ap_uintILi3EEC2Ei = comdat any

$_ZN11ap_int_baseILi3ELb0EEC2Ei = comdat any

$_ZN11ap_int_baseILi3ELb0EE18checkOverflowBaseCIiEEvT_ = comdat any

@llvm.global_ctors = appending global [0 x { i32, void ()*, i8* }] zeroinitializer
@_ZZ7hls_topiPiS_PjS0_E1b = private unnamed_addr constant [10 x i32] [i32 0, i32 1, i32 2, i32 3, i32 4, i32 5, i32 6, i32 7, i32 8, i32 9], align 4

; Function Attrs: alwaysinline nounwind
define void @_Z6decode7ap_uintILi32EES0_S0_S0_(%struct.Cap* noalias sret %agg.result, %"struct.ap_uint<32>"* byval align 4 %buffer_0, %"struct.ap_uint<32>"* byval align 4 %buffer_1, %"struct.ap_uint<32>"* byval align 4 %buffer_2, %"struct.ap_uint<32>"* byval align 4 %buffer_3) #100000 !dbg !100335 !fpga.function.pragma !100370 {
entry:
  %cap = alloca %"struct.ap_uint<64>", align 8
  %ref.tmp = alloca %"struct.ap_concat_ref<32, ap_int_base<32, false>, 32, ap_int_base<32, false> >", align 8
  %addr = alloca %"struct.ap_uint<64>", align 8
  %ref.tmp1 = alloca %"struct.ap_concat_ref<32, ap_int_base<32, false>, 32, ap_int_base<32, false> >", align 8
  %tmp = alloca %"struct.ap_range_ref<64, false>", align 8
  %tmp3 = alloca %"struct.ap_range_ref<64, false>", align 8
  %ref.tmp6 = alloca %"struct.ap_range_ref<64, false>", align 8
  %ref.tmp8 = alloca %"struct.ap_range_ref<64, false>", align 8
  %T_11_3 = alloca %"struct.ap_uint<9>", align 2
  %ref.tmp10 = alloca %"struct.ap_range_ref<64, false>", align 8
  %T_E = alloca %"struct.ap_uint<3>", align 1
  %ref.tmp11 = alloca %"struct.ap_range_ref<64, false>", align 8
  %B_13_3 = alloca %"struct.ap_uint<11>", align 2
  %ref.tmp12 = alloca %"struct.ap_range_ref<64, false>", align 8
  %B_E = alloca %"struct.ap_uint<3>", align 1
  %ref.tmp13 = alloca %"struct.ap_range_ref<64, false>", align 8
  %E = alloca %"struct.ap_uint<6>", align 1
  %T_13_0 = alloca %"struct.ap_uint<14>", align 2
  %B_13_0 = alloca %"struct.ap_uint<14>", align 2
  %ref.tmp14 = alloca %"struct.ap_uint<6>", align 1
  %ref.tmp15 = alloca %"struct.ap_uint<14>", align 2
  %ref.tmp16 = alloca %"struct.ap_concat_ref<9, ap_int_base<9, false>, 3, ap_int_base<3, false> >", align 8
  %ref.tmp17 = alloca %"struct.ap_uint<14>", align 2
  %ref.tmp18 = alloca %"struct.ap_concat_ref<11, ap_int_base<11, false>, 3, ap_int_base<3, false> >", align 8
  %T_11_0 = alloca %"struct.ap_uint<12>", align 2
  %ref.tmp19 = alloca %"struct.ap_range_ref<14, false>", align 8
  %B_11_0 = alloca %"struct.ap_uint<12>", align 2
  %ref.tmp20 = alloca %"struct.ap_range_ref<14, false>", align 8
  %ref.tmp22 = alloca %"struct.ap_uint<6>", align 1
  %ref.tmp23 = alloca %"struct.ap_concat_ref<3, ap_int_base<3, false>, 3, ap_int_base<3, false> >", align 8
  %ref.tmp24 = alloca %"struct.ap_uint<14>", align 2
  %ref.tmp25 = alloca %"struct.ap_uint<9>", align 2
  %ref.tmp26 = alloca %"struct.ap_uint<14>", align 2
  %ref.tmp27 = alloca %"struct.ap_uint<11>", align 2
  %T_11_3_only = alloca %"struct.ap_uint<12>", align 2
  %ref.tmp28 = alloca %"struct.ap_range_ref<14, false>", align 8
  %B_11_3_only = alloca %"struct.ap_uint<12>", align 2
  %ref.tmp29 = alloca %"struct.ap_range_ref<14, false>", align 8
  %B_13_12 = alloca %"struct.ap_uint<2>", align 1
  %ref.tmp31 = alloca %"struct.ap_range_ref<14, false>", align 8
  %T_13_12 = alloca %"struct.ap_uint<2>", align 1
  %ref.tmp32 = alloca %"struct.ap_int<34>", align 8
  %ref.tmp33 = alloca %"struct.ap_int<33>", align 8
  %ref.tmp37 = alloca %"struct.ap_uint<14>", align 2
  %ref.tmp38 = alloca %"struct.ap_concat_ref<2, ap_int_base<2, false>, 14, ap_range_ref<14, false> >", align 8
  %ref.tmp39 = alloca %"struct.ap_range_ref<14, false>", align 8
  %A3 = alloca %"struct.ap_uint<3>", align 1
  %ref.tmp40 = alloca %"struct.ap_int<65>", align 16
  %ref.tmp41 = alloca %"struct.ap_uint<64>", align 8
  %ref.tmp42 = alloca %"struct.ap_int<33>", align 8
  %T3 = alloca %"struct.ap_uint<3>", align 1
  %ref.tmp43 = alloca %"struct.ap_range_ref<14, false>", align 8
  %B3 = alloca %"struct.ap_uint<3>", align 1
  %ref.tmp44 = alloca %"struct.ap_range_ref<14, false>", align 8
  %R = alloca %"struct.ap_uint<3>", align 1
  %ref.tmp45 = alloca %"struct.ap_int<33>", align 8
  %c_t = alloca %"struct.ap_uint<2>", align 1
  %c_b = alloca %"struct.ap_uint<2>", align 1
  %ref.tmp49 = alloca %"struct.ap_uint<2>", align 1
  %ref.tmp55 = alloca %"struct.ap_uint<2>", align 1
  %ref.tmp62 = alloca %"struct.ap_uint<2>", align 1
  %ref.tmp68 = alloca %"struct.ap_uint<2>", align 1
  %ref.tmp71 = alloca %"struct.ap_int<33>", align 8
  %tmp72 = alloca %"struct.ap_uint<64>", align 8
  %ref.tmp74 = alloca %"struct.ap_int<34>", align 8
  %tmp75 = alloca %"struct.ap_int<34>", align 8
  %ref.tmp76 = alloca %"struct.ap_int<33>", align 8
  %tmp77 = alloca %"struct.ap_uint<32>", align 4
  %tmp81 = alloca %"struct.ap_int<34>", align 8
  %ref.tmp84 = alloca %"struct.ap_int<34>", align 8
  %tmp85 = alloca %"struct.ap_int<34>", align 8
  %ref.tmp86 = alloca %"struct.ap_int<33>", align 8
  %tmp87 = alloca %"struct.ap_uint<32>", align 4
  %tmp93 = alloca %"struct.ap_int<34>", align 8
  %tmp96 = alloca %"struct.ap_int<65>", align 16
  %tmp100 = alloca %"struct.ap_int<65>", align 16
  call void @llvm.dbg.declare(metadata %"struct.ap_uint<32>"* %buffer_0, metadata !100373, metadata !DIExpression()), !dbg !100374
  call void @llvm.dbg.declare(metadata %"struct.ap_uint<32>"* %buffer_1, metadata !100375, metadata !DIExpression()), !dbg !100376
  call void @llvm.dbg.declare(metadata %"struct.ap_uint<32>"* %buffer_2, metadata !100377, metadata !DIExpression()), !dbg !100378
  call void @llvm.dbg.declare(metadata %"struct.ap_uint<32>"* %buffer_3, metadata !100379, metadata !DIExpression()), !dbg !100380
  %0 = bitcast %"struct.ap_uint<64>"* %cap to i8*, !dbg !100381
  call void @llvm.lifetime.start.p0i8(i64 8, i8* %0) #100019, !dbg !100381
  call void @llvm.dbg.declare(metadata %"struct.ap_uint<64>"* %cap, metadata !100382, metadata !DIExpression()), !dbg !100403
  %1 = bitcast %"struct.ap_concat_ref<32, ap_int_base<32, false>, 32, ap_int_base<32, false> >"* %ref.tmp to i8*, !dbg !100404
  call void @llvm.lifetime.start.p0i8(i64 16, i8* %1) #100019, !dbg !100404
  %2 = bitcast %"struct.ap_uint<32>"* %buffer_3 to %"struct.ap_int_base<32, false>"*, !dbg !100405
  %3 = bitcast %"struct.ap_uint<32>"* %buffer_2 to %"struct.ap_int_base<32, false>"*, !dbg !100406
  call void @_ZN11ap_int_baseILi32ELb0EEcmILi32ELb0EEE13ap_concat_refILi32ES0_XT_ES_IXT_EXT0_EEERS3_(%"struct.ap_concat_ref<32, ap_int_base<32, false>, 32, ap_int_base<32, false> >"* sret %ref.tmp, %"struct.ap_int_base<32, false>"* %2, %"struct.ap_int_base<32, false>"* dereferenceable(4) %3), !dbg !100407
  call void @_ZN7ap_uintILi64EEC2ILi32E11ap_int_baseILi32ELb0EELi32ES3_EERK13ap_concat_refIXT_ET0_XT1_ET2_E(%"struct.ap_uint<64>"* %cap, %"struct.ap_concat_ref<32, ap_int_base<32, false>, 32, ap_int_base<32, false> >"* dereferenceable(16) %ref.tmp), !dbg !100404
  %4 = bitcast %"struct.ap_concat_ref<32, ap_int_base<32, false>, 32, ap_int_base<32, false> >"* %ref.tmp to i8*, !dbg !100403
  call void @llvm.lifetime.end.p0i8(i64 16, i8* %4) #100019, !dbg !100403
  %5 = bitcast %"struct.ap_uint<64>"* %addr to i8*, !dbg !100408
  call void @llvm.lifetime.start.p0i8(i64 8, i8* %5) #100019, !dbg !100408
  call void @llvm.dbg.declare(metadata %"struct.ap_uint<64>"* %addr, metadata !100409, metadata !DIExpression()), !dbg !100410
  %6 = bitcast %"struct.ap_concat_ref<32, ap_int_base<32, false>, 32, ap_int_base<32, false> >"* %ref.tmp1 to i8*, !dbg !100411
  call void @llvm.lifetime.start.p0i8(i64 16, i8* %6) #100019, !dbg !100411
  %7 = bitcast %"struct.ap_uint<32>"* %buffer_1 to %"struct.ap_int_base<32, false>"*, !dbg !100412
  %8 = bitcast %"struct.ap_uint<32>"* %buffer_0 to %"struct.ap_int_base<32, false>"*, !dbg !100413
  call void @_ZN11ap_int_baseILi32ELb0EEcmILi32ELb0EEE13ap_concat_refILi32ES0_XT_ES_IXT_EXT0_EEERS3_(%"struct.ap_concat_ref<32, ap_int_base<32, false>, 32, ap_int_base<32, false> >"* sret %ref.tmp1, %"struct.ap_int_base<32, false>"* %7, %"struct.ap_int_base<32, false>"* dereferenceable(4) %8), !dbg !100414
  call void @_ZN7ap_uintILi64EEC2ILi32E11ap_int_baseILi32ELb0EELi32ES3_EERK13ap_concat_refIXT_ET0_XT1_ET2_E(%"struct.ap_uint<64>"* %addr, %"struct.ap_concat_ref<32, ap_int_base<32, false>, 32, ap_int_base<32, false> >"* dereferenceable(16) %ref.tmp1), !dbg !100411
  %9 = bitcast %"struct.ap_concat_ref<32, ap_int_base<32, false>, 32, ap_int_base<32, false> >"* %ref.tmp1 to i8*, !dbg !100410
  call void @llvm.lifetime.end.p0i8(i64 16, i8* %9) #100019, !dbg !100410
  %10 = bitcast %"struct.ap_uint<64>"* %cap to %"struct.ap_int_base<64, false>"*, !dbg !100415
  %call = call dereferenceable(8) %"struct.ap_int_base<64, false>"* @_ZeOILi64ELb0EER11ap_int_baseIXT_EXT0_EES2_l(%"struct.ap_int_base<64, false>"* dereferenceable(8) %10, i64 35184305078276), !dbg !100416
  %11 = bitcast %"struct.ap_uint<64>"* %cap to %"struct.ap_int_base<64, false>"*, !dbg !100417
  call void @_ZN11ap_int_baseILi64ELb0EE5rangeEii(%"struct.ap_range_ref<64, false>"* sret %tmp, %"struct.ap_int_base<64, false>"* %11, i32 61, i32 61), !dbg !100418
  %call2 = call i64 @_ZNK12ap_range_refILi64ELb0EEcvyEv(%"struct.ap_range_ref<64, false>"* %tmp), !dbg !100417
  %tobool = icmp ne i64 %call2, 0, !dbg !100417
  call void @llvm.dbg.value(metadata i1 %tobool, metadata !100419, metadata !DIExpression()), !dbg !100420
  %12 = bitcast %"struct.ap_uint<64>"* %cap to %"struct.ap_int_base<64, false>"*, !dbg !100421
  call void @_ZN11ap_int_baseILi64ELb0EE5rangeEii(%"struct.ap_range_ref<64, false>"* sret %tmp3, %"struct.ap_int_base<64, false>"* %12, i32 60, i32 60), !dbg !100422
  %call4 = call i64 @_ZNK12ap_range_refILi64ELb0EEcvyEv(%"struct.ap_range_ref<64, false>"* %tmp3), !dbg !100421
  %tobool5 = icmp ne i64 %call4, 0, !dbg !100421
  call void @llvm.dbg.value(metadata i1 %tobool5, metadata !100423, metadata !DIExpression()), !dbg !100424
  %13 = bitcast %"struct.ap_range_ref<64, false>"* %ref.tmp6 to i8*, !dbg !100425
  call void @llvm.lifetime.start.p0i8(i64 16, i8* %13) #100019, !dbg !100425
  %14 = bitcast %"struct.ap_uint<64>"* %cap to %"struct.ap_int_base<64, false>"*, !dbg !100425
  call void @_ZN11ap_int_baseILi64ELb0EE5rangeEii(%"struct.ap_range_ref<64, false>"* sret %ref.tmp6, %"struct.ap_int_base<64, false>"* %14, i32 47, i32 47), !dbg !100426
  %call7 = call zeroext i1 @_ZneILi64ELb0EEbRK12ap_range_refIXT_EXT0_EEi(%"struct.ap_range_ref<64, false>"* dereferenceable(16) %ref.tmp6, i32 0), !dbg !100427
  %15 = bitcast %"struct.ap_range_ref<64, false>"* %ref.tmp6 to i8*, !dbg !100428
  call void @llvm.lifetime.end.p0i8(i64 16, i8* %15) #100019, !dbg !100428
  call void @llvm.dbg.value(metadata i1 %call7, metadata !100429, metadata !DIExpression()), !dbg !100430
  %16 = bitcast %"struct.ap_range_ref<64, false>"* %ref.tmp8 to i8*, !dbg !100431
  call void @llvm.lifetime.start.p0i8(i64 16, i8* %16) #100019, !dbg !100431
  %17 = bitcast %"struct.ap_uint<64>"* %cap to %"struct.ap_int_base<64, false>"*, !dbg !100431
  call void @_ZN11ap_int_baseILi64ELb0EE5rangeEii(%"struct.ap_range_ref<64, false>"* sret %ref.tmp8, %"struct.ap_int_base<64, false>"* %17, i32 26, i32 26), !dbg !100432
  %call9 = call zeroext i1 @_ZneILi64ELb0EEbRK12ap_range_refIXT_EXT0_EEi(%"struct.ap_range_ref<64, false>"* dereferenceable(16) %ref.tmp8, i32 0), !dbg !100433
  %18 = bitcast %"struct.ap_range_ref<64, false>"* %ref.tmp8 to i8*, !dbg !100434
  call void @llvm.lifetime.end.p0i8(i64 16, i8* %18) #100019, !dbg !100434
  call void @llvm.dbg.value(metadata i1 %call9, metadata !100435, metadata !DIExpression()), !dbg !100436
  %19 = bitcast %"struct.ap_uint<9>"* %T_11_3 to i8*, !dbg !100437
  call void @llvm.lifetime.start.p0i8(i64 2, i8* %19) #100019, !dbg !100437
  call void @llvm.dbg.declare(metadata %"struct.ap_uint<9>"* %T_11_3, metadata !100438, metadata !DIExpression()), !dbg !100459
  %20 = bitcast %"struct.ap_range_ref<64, false>"* %ref.tmp10 to i8*, !dbg !100460
  call void @llvm.lifetime.start.p0i8(i64 16, i8* %20) #100019, !dbg !100460
  %21 = bitcast %"struct.ap_uint<64>"* %cap to %"struct.ap_int_base<64, false>"*, !dbg !100460
  call void @_ZN11ap_int_baseILi64ELb0EE5rangeEii(%"struct.ap_range_ref<64, false>"* sret %ref.tmp10, %"struct.ap_int_base<64, false>"* %21, i32 25, i32 17), !dbg !100461
  call void @_ZN7ap_uintILi9EEC2ILi64ELb0EEERK12ap_range_refIXT_EXT0_EE(%"struct.ap_uint<9>"* %T_11_3, %"struct.ap_range_ref<64, false>"* dereferenceable(16) %ref.tmp10), !dbg !100460
  %22 = bitcast %"struct.ap_range_ref<64, false>"* %ref.tmp10 to i8*, !dbg !100459
  call void @llvm.lifetime.end.p0i8(i64 16, i8* %22) #100019, !dbg !100459
  %23 = bitcast %"struct.ap_uint<3>"* %T_E to i8*, !dbg !100462
  call void @llvm.lifetime.start.p0i8(i64 1, i8* %23) #100019, !dbg !100462
  call void @llvm.dbg.declare(metadata %"struct.ap_uint<3>"* %T_E, metadata !100463, metadata !DIExpression()), !dbg !100511
  %24 = bitcast %"struct.ap_range_ref<64, false>"* %ref.tmp11 to i8*, !dbg !100512
  call void @llvm.lifetime.start.p0i8(i64 16, i8* %24) #100019, !dbg !100512
  %25 = bitcast %"struct.ap_uint<64>"* %cap to %"struct.ap_int_base<64, false>"*, !dbg !100512
  call void @_ZN11ap_int_baseILi64ELb0EE5rangeEii(%"struct.ap_range_ref<64, false>"* sret %ref.tmp11, %"struct.ap_int_base<64, false>"* %25, i32 16, i32 14), !dbg !100513
  call void @_ZN7ap_uintILi3EEC2ILi64ELb0EEERK12ap_range_refIXT_EXT0_EE(%"struct.ap_uint<3>"* %T_E, %"struct.ap_range_ref<64, false>"* dereferenceable(16) %ref.tmp11), !dbg !100512
  %26 = bitcast %"struct.ap_range_ref<64, false>"* %ref.tmp11 to i8*, !dbg !100511
  call void @llvm.lifetime.end.p0i8(i64 16, i8* %26) #100019, !dbg !100511
  %27 = bitcast %"struct.ap_uint<11>"* %B_13_3 to i8*, !dbg !100514
  call void @llvm.lifetime.start.p0i8(i64 2, i8* %27) #100019, !dbg !100514
  call void @llvm.dbg.declare(metadata %"struct.ap_uint<11>"* %B_13_3, metadata !100515, metadata !DIExpression()), !dbg !100536
  %28 = bitcast %"struct.ap_range_ref<64, false>"* %ref.tmp12 to i8*, !dbg !100537
  call void @llvm.lifetime.start.p0i8(i64 16, i8* %28) #100019, !dbg !100537
  %29 = bitcast %"struct.ap_uint<64>"* %cap to %"struct.ap_int_base<64, false>"*, !dbg !100537
  call void @_ZN11ap_int_baseILi64ELb0EE5rangeEii(%"struct.ap_range_ref<64, false>"* sret %ref.tmp12, %"struct.ap_int_base<64, false>"* %29, i32 13, i32 3), !dbg !100538
  call void @_ZN7ap_uintILi11EEC2ILi64ELb0EEERK12ap_range_refIXT_EXT0_EE(%"struct.ap_uint<11>"* %B_13_3, %"struct.ap_range_ref<64, false>"* dereferenceable(16) %ref.tmp12), !dbg !100537
  %30 = bitcast %"struct.ap_range_ref<64, false>"* %ref.tmp12 to i8*, !dbg !100536
  call void @llvm.lifetime.end.p0i8(i64 16, i8* %30) #100019, !dbg !100536
  %31 = bitcast %"struct.ap_uint<3>"* %B_E to i8*, !dbg !100539
  call void @llvm.lifetime.start.p0i8(i64 1, i8* %31) #100019, !dbg !100539
  call void @llvm.dbg.declare(metadata %"struct.ap_uint<3>"* %B_E, metadata !100540, metadata !DIExpression()), !dbg !100541
  %32 = bitcast %"struct.ap_range_ref<64, false>"* %ref.tmp13 to i8*, !dbg !100542
  call void @llvm.lifetime.start.p0i8(i64 16, i8* %32) #100019, !dbg !100542
  %33 = bitcast %"struct.ap_uint<64>"* %cap to %"struct.ap_int_base<64, false>"*, !dbg !100542
  call void @_ZN11ap_int_baseILi64ELb0EE5rangeEii(%"struct.ap_range_ref<64, false>"* sret %ref.tmp13, %"struct.ap_int_base<64, false>"* %33, i32 2, i32 0), !dbg !100543
  call void @_ZN7ap_uintILi3EEC2ILi64ELb0EEERK12ap_range_refIXT_EXT0_EE(%"struct.ap_uint<3>"* %B_E, %"struct.ap_range_ref<64, false>"* dereferenceable(16) %ref.tmp13), !dbg !100542
  %34 = bitcast %"struct.ap_range_ref<64, false>"* %ref.tmp13 to i8*, !dbg !100541
  call void @llvm.lifetime.end.p0i8(i64 16, i8* %34) #100019, !dbg !100541
  %35 = bitcast %"struct.ap_uint<6>"* %E to i8*, !dbg !100544
  call void @llvm.lifetime.start.p0i8(i64 1, i8* %35) #100019, !dbg !100544
  call void @llvm.dbg.declare(metadata %"struct.ap_uint<6>"* %E, metadata !100545, metadata !DIExpression()), !dbg !100566
  call void @_ZN7ap_uintILi6EEC2Ei(%"struct.ap_uint<6>"* %E, i32 0), !dbg !100567
  %36 = bitcast %"struct.ap_uint<14>"* %T_13_0 to i8*, !dbg !100568
  call void @llvm.lifetime.start.p0i8(i64 2, i8* %36) #100019, !dbg !100568
  call void @llvm.dbg.declare(metadata %"struct.ap_uint<14>"* %T_13_0, metadata !100569, metadata !DIExpression()), !dbg !100617
  call void @_ZN7ap_uintILi14EEC2Ei(%"struct.ap_uint<14>"* %T_13_0, i32 0), !dbg !100618
  %37 = bitcast %"struct.ap_uint<14>"* %B_13_0 to i8*, !dbg !100619
  call void @llvm.lifetime.start.p0i8(i64 2, i8* %37) #100019, !dbg !100619
  call void @llvm.dbg.declare(metadata %"struct.ap_uint<14>"* %B_13_0, metadata !100620, metadata !DIExpression()), !dbg !100621
  call void @_ZN7ap_uintILi14EEC2Ei(%"struct.ap_uint<14>"* %B_13_0, i32 0), !dbg !100622
  call void @llvm.dbg.value(metadata i1 false, metadata !100623, metadata !DIExpression()), !dbg !100624
  br i1 %call9, label %if.else, label %if.then, !dbg !100625

if.then:                                          ; preds = %entry
  %38 = bitcast %"struct.ap_uint<6>"* %ref.tmp14 to i8*, !dbg !100626
  call void @llvm.lifetime.start.p0i8(i64 1, i8* %38) #100019, !dbg !100626
  call void @_ZN7ap_uintILi6EEC2Ei(%"struct.ap_uint<6>"* %ref.tmp14, i32 0), !dbg !100626
  %39 = load %"struct.ap_uint<6>", %"struct.ap_uint<6>"* %ref.tmp14, align 1, !dbg !100629
  store %"struct.ap_uint<6>" %39, %"struct.ap_uint<6>"* %E, align 1, !dbg !100629
  %40 = bitcast %"struct.ap_uint<6>"* %ref.tmp14 to i8*, !dbg !100630
  call void @llvm.lifetime.end.p0i8(i64 1, i8* %40) #100019, !dbg !100630
  %41 = bitcast %"struct.ap_uint<14>"* %ref.tmp15 to i8*, !dbg !100631
  call void @llvm.lifetime.start.p0i8(i64 2, i8* %41) #100019, !dbg !100631
  %42 = bitcast %"struct.ap_concat_ref<9, ap_int_base<9, false>, 3, ap_int_base<3, false> >"* %ref.tmp16 to i8*, !dbg !100631
  call void @llvm.lifetime.start.p0i8(i64 16, i8* %42) #100019, !dbg !100631
  %43 = bitcast %"struct.ap_uint<9>"* %T_11_3 to %"struct.ap_int_base<9, false>"*, !dbg !100632
  %44 = bitcast %"struct.ap_uint<3>"* %T_E to %"struct.ap_int_base<3, false>"*, !dbg !100633
  call void @_ZN11ap_int_baseILi9ELb0EEcmILi3ELb0EEE13ap_concat_refILi9ES0_XT_ES_IXT_EXT0_EEERS3_(%"struct.ap_concat_ref<9, ap_int_base<9, false>, 3, ap_int_base<3, false> >"* sret %ref.tmp16, %"struct.ap_int_base<9, false>"* %43, %"struct.ap_int_base<3, false>"* dereferenceable(1) %44), !dbg !100634
  call void @_ZN7ap_uintILi14EEC2ILi9E11ap_int_baseILi9ELb0EELi3ES2_ILi3ELb0EEEERK13ap_concat_refIXT_ET0_XT1_ET2_E(%"struct.ap_uint<14>"* %ref.tmp15, %"struct.ap_concat_ref<9, ap_int_base<9, false>, 3, ap_int_base<3, false> >"* dereferenceable(16) %ref.tmp16), !dbg !100631
  %45 = load %"struct.ap_uint<14>", %"struct.ap_uint<14>"* %ref.tmp15, align 2, !dbg !100635
  store %"struct.ap_uint<14>" %45, %"struct.ap_uint<14>"* %T_13_0, align 2, !dbg !100635
  %46 = bitcast %"struct.ap_concat_ref<9, ap_int_base<9, false>, 3, ap_int_base<3, false> >"* %ref.tmp16 to i8*, !dbg !100636
  call void @llvm.lifetime.end.p0i8(i64 16, i8* %46) #100019, !dbg !100636
  %47 = bitcast %"struct.ap_uint<14>"* %ref.tmp15 to i8*, !dbg !100636
  call void @llvm.lifetime.end.p0i8(i64 2, i8* %47) #100019, !dbg !100636
  %48 = bitcast %"struct.ap_uint<14>"* %ref.tmp17 to i8*, !dbg !100637
  call void @llvm.lifetime.start.p0i8(i64 2, i8* %48) #100019, !dbg !100637
  %49 = bitcast %"struct.ap_concat_ref<11, ap_int_base<11, false>, 3, ap_int_base<3, false> >"* %ref.tmp18 to i8*, !dbg !100637
  call void @llvm.lifetime.start.p0i8(i64 16, i8* %49) #100019, !dbg !100637
  %50 = bitcast %"struct.ap_uint<11>"* %B_13_3 to %"struct.ap_int_base<11, false>"*, !dbg !100638
  %51 = bitcast %"struct.ap_uint<3>"* %B_E to %"struct.ap_int_base<3, false>"*, !dbg !100639
  call void @_ZN11ap_int_baseILi11ELb0EEcmILi3ELb0EEE13ap_concat_refILi11ES0_XT_ES_IXT_EXT0_EEERS3_(%"struct.ap_concat_ref<11, ap_int_base<11, false>, 3, ap_int_base<3, false> >"* sret %ref.tmp18, %"struct.ap_int_base<11, false>"* %50, %"struct.ap_int_base<3, false>"* dereferenceable(1) %51), !dbg !100640
  call void @_ZN7ap_uintILi14EEC2ILi11E11ap_int_baseILi11ELb0EELi3ES2_ILi3ELb0EEEERK13ap_concat_refIXT_ET0_XT1_ET2_E(%"struct.ap_uint<14>"* %ref.tmp17, %"struct.ap_concat_ref<11, ap_int_base<11, false>, 3, ap_int_base<3, false> >"* dereferenceable(16) %ref.tmp18), !dbg !100637
  %52 = load %"struct.ap_uint<14>", %"struct.ap_uint<14>"* %ref.tmp17, align 2, !dbg !100641
  store %"struct.ap_uint<14>" %52, %"struct.ap_uint<14>"* %B_13_0, align 2, !dbg !100641
  %53 = bitcast %"struct.ap_concat_ref<11, ap_int_base<11, false>, 3, ap_int_base<3, false> >"* %ref.tmp18 to i8*, !dbg !100642
  call void @llvm.lifetime.end.p0i8(i64 16, i8* %53) #100019, !dbg !100642
  %54 = bitcast %"struct.ap_uint<14>"* %ref.tmp17 to i8*, !dbg !100642
  call void @llvm.lifetime.end.p0i8(i64 2, i8* %54) #100019, !dbg !100642
  %55 = bitcast %"struct.ap_uint<12>"* %T_11_0 to i8*, !dbg !100643
  call void @llvm.lifetime.start.p0i8(i64 2, i8* %55) #100019, !dbg !100643
  call void @llvm.dbg.declare(metadata %"struct.ap_uint<12>"* %T_11_0, metadata !100644, metadata !DIExpression()), !dbg !100692
  %56 = bitcast %"struct.ap_range_ref<14, false>"* %ref.tmp19 to i8*, !dbg !100693
  call void @llvm.lifetime.start.p0i8(i64 16, i8* %56) #100019, !dbg !100693
  %57 = bitcast %"struct.ap_uint<14>"* %T_13_0 to %"struct.ap_int_base<14, false>"*, !dbg !100693
  call void @_ZN11ap_int_baseILi14ELb0EE5rangeEii(%"struct.ap_range_ref<14, false>"* sret %ref.tmp19, %"struct.ap_int_base<14, false>"* %57, i32 11, i32 0), !dbg !100694
  call void @_ZN7ap_uintILi12EEC2ILi14ELb0EEERK12ap_range_refIXT_EXT0_EE(%"struct.ap_uint<12>"* %T_11_0, %"struct.ap_range_ref<14, false>"* dereferenceable(16) %ref.tmp19), !dbg !100693
  %58 = bitcast %"struct.ap_range_ref<14, false>"* %ref.tmp19 to i8*, !dbg !100692
  call void @llvm.lifetime.end.p0i8(i64 16, i8* %58) #100019, !dbg !100692
  %59 = bitcast %"struct.ap_uint<12>"* %B_11_0 to i8*, !dbg !100695
  call void @llvm.lifetime.start.p0i8(i64 2, i8* %59) #100019, !dbg !100695
  call void @llvm.dbg.declare(metadata %"struct.ap_uint<12>"* %B_11_0, metadata !100696, metadata !DIExpression()), !dbg !100697
  %60 = bitcast %"struct.ap_range_ref<14, false>"* %ref.tmp20 to i8*, !dbg !100698
  call void @llvm.lifetime.start.p0i8(i64 16, i8* %60) #100019, !dbg !100698
  %61 = bitcast %"struct.ap_uint<14>"* %B_13_0 to %"struct.ap_int_base<14, false>"*, !dbg !100698
  call void @_ZN11ap_int_baseILi14ELb0EE5rangeEii(%"struct.ap_range_ref<14, false>"* sret %ref.tmp20, %"struct.ap_int_base<14, false>"* %61, i32 11, i32 0), !dbg !100699
  call void @_ZN7ap_uintILi12EEC2ILi14ELb0EEERK12ap_range_refIXT_EXT0_EE(%"struct.ap_uint<12>"* %B_11_0, %"struct.ap_range_ref<14, false>"* dereferenceable(16) %ref.tmp20), !dbg !100698
  %62 = bitcast %"struct.ap_range_ref<14, false>"* %ref.tmp20 to i8*, !dbg !100697
  call void @llvm.lifetime.end.p0i8(i64 16, i8* %62) #100019, !dbg !100697
  %63 = bitcast %"struct.ap_uint<12>"* %T_11_0 to %"struct.ap_int_base<12, false>"*, !dbg !100700
  %64 = bitcast %"struct.ap_uint<12>"* %B_11_0 to %"struct.ap_int_base<12, false>"*, !dbg !100701
  %call21 = call zeroext i1 @_ZNK11ap_int_baseILi12ELb0EEltILi12ELb0EEEbRKS_IXT_EXT0_EE(%"struct.ap_int_base<12, false>"* %63, %"struct.ap_int_base<12, false>"* dereferenceable(2) %64), !dbg !100702
  call void @llvm.dbg.value(metadata i1 %call21, metadata !100623, metadata !DIExpression()), !dbg !100624
  %65 = bitcast %"struct.ap_uint<12>"* %B_11_0 to i8*, !dbg !100703
  call void @llvm.lifetime.end.p0i8(i64 2, i8* %65) #100019, !dbg !100703
  %66 = bitcast %"struct.ap_uint<12>"* %T_11_0 to i8*, !dbg !100703
  call void @llvm.lifetime.end.p0i8(i64 2, i8* %66) #100019, !dbg !100703
  br label %if.end, !dbg !100704

if.else:                                          ; preds = %entry
  %67 = bitcast %"struct.ap_uint<6>"* %ref.tmp22 to i8*, !dbg !100705
  call void @llvm.lifetime.start.p0i8(i64 1, i8* %67) #100019, !dbg !100705
  %68 = bitcast %"struct.ap_concat_ref<3, ap_int_base<3, false>, 3, ap_int_base<3, false> >"* %ref.tmp23 to i8*, !dbg !100705
  call void @llvm.lifetime.start.p0i8(i64 16, i8* %68) #100019, !dbg !100705
  %69 = bitcast %"struct.ap_uint<3>"* %T_E to %"struct.ap_int_base<3, false>"*, !dbg !100707
  %70 = bitcast %"struct.ap_uint<3>"* %B_E to %"struct.ap_int_base<3, false>"*, !dbg !100708
  call void @_ZN11ap_int_baseILi3ELb0EEcmILi3ELb0EEE13ap_concat_refILi3ES0_XT_ES_IXT_EXT0_EEERS3_(%"struct.ap_concat_ref<3, ap_int_base<3, false>, 3, ap_int_base<3, false> >"* sret %ref.tmp23, %"struct.ap_int_base<3, false>"* %69, %"struct.ap_int_base<3, false>"* dereferenceable(1) %70), !dbg !100709
  call void @_ZN7ap_uintILi6EEC2ILi3E11ap_int_baseILi3ELb0EELi3ES3_EERK13ap_concat_refIXT_ET0_XT1_ET2_E(%"struct.ap_uint<6>"* %ref.tmp22, %"struct.ap_concat_ref<3, ap_int_base<3, false>, 3, ap_int_base<3, false> >"* dereferenceable(16) %ref.tmp23), !dbg !100705
  %71 = load %"struct.ap_uint<6>", %"struct.ap_uint<6>"* %ref.tmp22, align 1, !dbg !100710
  store %"struct.ap_uint<6>" %71, %"struct.ap_uint<6>"* %E, align 1, !dbg !100710
  %72 = bitcast %"struct.ap_concat_ref<3, ap_int_base<3, false>, 3, ap_int_base<3, false> >"* %ref.tmp23 to i8*, !dbg !100711
  call void @llvm.lifetime.end.p0i8(i64 16, i8* %72) #100019, !dbg !100711
  %73 = bitcast %"struct.ap_uint<6>"* %ref.tmp22 to i8*, !dbg !100711
  call void @llvm.lifetime.end.p0i8(i64 1, i8* %73) #100019, !dbg !100711
  %74 = bitcast %"struct.ap_uint<14>"* %ref.tmp24 to i8*, !dbg !100712
  call void @llvm.lifetime.start.p0i8(i64 2, i8* %74) #100019, !dbg !100712
  %75 = bitcast %"struct.ap_uint<9>"* %ref.tmp25 to i8*, !dbg !100712
  call void @llvm.lifetime.start.p0i8(i64 2, i8* %75) #100019, !dbg !100712
  %76 = bitcast %"struct.ap_uint<9>"* %T_11_3 to %"struct.ap_int_base<9, false>"*, !dbg !100713
  call void @_ZlsILi9ELb0EEN11ap_int_baseIXT_EXT0_EE5RTypeIXT_EXT0_EE4arg1ERKS1_i(%"struct.ap_uint<9>"* sret %ref.tmp25, %"struct.ap_int_base<9, false>"* dereferenceable(2) %76, i32 3), !dbg !100714
  call void @_ZN7ap_uintILi14EEC2ILi9EEERKS_IXT_EE(%"struct.ap_uint<14>"* %ref.tmp24, %"struct.ap_uint<9>"* dereferenceable(2) %ref.tmp25), !dbg !100712
  %77 = load %"struct.ap_uint<14>", %"struct.ap_uint<14>"* %ref.tmp24, align 2, !dbg !100715
  store %"struct.ap_uint<14>" %77, %"struct.ap_uint<14>"* %T_13_0, align 2, !dbg !100715
  %78 = bitcast %"struct.ap_uint<9>"* %ref.tmp25 to i8*, !dbg !100716
  call void @llvm.lifetime.end.p0i8(i64 2, i8* %78) #100019, !dbg !100716
  %79 = bitcast %"struct.ap_uint<14>"* %ref.tmp24 to i8*, !dbg !100716
  call void @llvm.lifetime.end.p0i8(i64 2, i8* %79) #100019, !dbg !100716
  %80 = bitcast %"struct.ap_uint<14>"* %ref.tmp26 to i8*, !dbg !100717
  call void @llvm.lifetime.start.p0i8(i64 2, i8* %80) #100019, !dbg !100717
  %81 = bitcast %"struct.ap_uint<11>"* %ref.tmp27 to i8*, !dbg !100717
  call void @llvm.lifetime.start.p0i8(i64 2, i8* %81) #100019, !dbg !100717
  %82 = bitcast %"struct.ap_uint<11>"* %B_13_3 to %"struct.ap_int_base<11, false>"*, !dbg !100718
  call void @_ZlsILi11ELb0EEN11ap_int_baseIXT_EXT0_EE5RTypeIXT_EXT0_EE4arg1ERKS1_i(%"struct.ap_uint<11>"* sret %ref.tmp27, %"struct.ap_int_base<11, false>"* dereferenceable(2) %82, i32 3), !dbg !100719
  call void @_ZN7ap_uintILi14EEC2ILi11EEERKS_IXT_EE(%"struct.ap_uint<14>"* %ref.tmp26, %"struct.ap_uint<11>"* dereferenceable(2) %ref.tmp27), !dbg !100717
  %83 = load %"struct.ap_uint<14>", %"struct.ap_uint<14>"* %ref.tmp26, align 2, !dbg !100720
  store %"struct.ap_uint<14>" %83, %"struct.ap_uint<14>"* %B_13_0, align 2, !dbg !100720
  %84 = bitcast %"struct.ap_uint<11>"* %ref.tmp27 to i8*, !dbg !100721
  call void @llvm.lifetime.end.p0i8(i64 2, i8* %84) #100019, !dbg !100721
  %85 = bitcast %"struct.ap_uint<14>"* %ref.tmp26 to i8*, !dbg !100721
  call void @llvm.lifetime.end.p0i8(i64 2, i8* %85) #100019, !dbg !100721
  %86 = bitcast %"struct.ap_uint<12>"* %T_11_3_only to i8*, !dbg !100722
  call void @llvm.lifetime.start.p0i8(i64 2, i8* %86) #100019, !dbg !100722
  call void @llvm.dbg.declare(metadata %"struct.ap_uint<12>"* %T_11_3_only, metadata !100723, metadata !DIExpression()), !dbg !100724
  %87 = bitcast %"struct.ap_range_ref<14, false>"* %ref.tmp28 to i8*, !dbg !100725
  call void @llvm.lifetime.start.p0i8(i64 16, i8* %87) #100019, !dbg !100725
  %88 = bitcast %"struct.ap_uint<14>"* %T_13_0 to %"struct.ap_int_base<14, false>"*, !dbg !100725
  call void @_ZN11ap_int_baseILi14ELb0EE5rangeEii(%"struct.ap_range_ref<14, false>"* sret %ref.tmp28, %"struct.ap_int_base<14, false>"* %88, i32 11, i32 3), !dbg !100726
  call void @_ZN7ap_uintILi12EEC2ILi14ELb0EEERK12ap_range_refIXT_EXT0_EE(%"struct.ap_uint<12>"* %T_11_3_only, %"struct.ap_range_ref<14, false>"* dereferenceable(16) %ref.tmp28), !dbg !100725
  %89 = bitcast %"struct.ap_range_ref<14, false>"* %ref.tmp28 to i8*, !dbg !100724
  call void @llvm.lifetime.end.p0i8(i64 16, i8* %89) #100019, !dbg !100724
  %90 = bitcast %"struct.ap_uint<12>"* %B_11_3_only to i8*, !dbg !100727
  call void @llvm.lifetime.start.p0i8(i64 2, i8* %90) #100019, !dbg !100727
  call void @llvm.dbg.declare(metadata %"struct.ap_uint<12>"* %B_11_3_only, metadata !100728, metadata !DIExpression()), !dbg !100729
  %91 = bitcast %"struct.ap_range_ref<14, false>"* %ref.tmp29 to i8*, !dbg !100730
  call void @llvm.lifetime.start.p0i8(i64 16, i8* %91) #100019, !dbg !100730
  %92 = bitcast %"struct.ap_uint<14>"* %T_13_0 to %"struct.ap_int_base<14, false>"*, !dbg !100730
  call void @_ZN11ap_int_baseILi14ELb0EE5rangeEii(%"struct.ap_range_ref<14, false>"* sret %ref.tmp29, %"struct.ap_int_base<14, false>"* %92, i32 11, i32 3), !dbg !100731
  call void @_ZN7ap_uintILi12EEC2ILi14ELb0EEERK12ap_range_refIXT_EXT0_EE(%"struct.ap_uint<12>"* %B_11_3_only, %"struct.ap_range_ref<14, false>"* dereferenceable(16) %ref.tmp29), !dbg !100730
  %93 = bitcast %"struct.ap_range_ref<14, false>"* %ref.tmp29 to i8*, !dbg !100729
  call void @llvm.lifetime.end.p0i8(i64 16, i8* %93) #100019, !dbg !100729
  %94 = bitcast %"struct.ap_uint<12>"* %T_11_3_only to %"struct.ap_int_base<12, false>"*, !dbg !100732
  %95 = bitcast %"struct.ap_uint<12>"* %B_11_3_only to %"struct.ap_int_base<12, false>"*, !dbg !100733
  %call30 = call zeroext i1 @_ZNK11ap_int_baseILi12ELb0EEltILi12ELb0EEEbRKS_IXT_EXT0_EE(%"struct.ap_int_base<12, false>"* %94, %"struct.ap_int_base<12, false>"* dereferenceable(2) %95), !dbg !100734
  call void @llvm.dbg.value(metadata i1 %call30, metadata !100623, metadata !DIExpression()), !dbg !100624
  %96 = bitcast %"struct.ap_uint<12>"* %B_11_3_only to i8*, !dbg !100735
  call void @llvm.lifetime.end.p0i8(i64 2, i8* %96) #100019, !dbg !100735
  %97 = bitcast %"struct.ap_uint<12>"* %T_11_3_only to i8*, !dbg !100735
  call void @llvm.lifetime.end.p0i8(i64 2, i8* %97) #100019, !dbg !100735
  br label %if.end

if.end:                                           ; preds = %if.else, %if.then
  %L_carry_out.0 = phi i1 [ %call30, %if.else ], [ %call21, %if.then ]
  call void @llvm.dbg.value(metadata i1 %L_carry_out.0, metadata !100623, metadata !DIExpression()), !dbg !100624
  %98 = bitcast %"struct.ap_uint<2>"* %B_13_12 to i8*, !dbg !100736
  call void @llvm.lifetime.start.p0i8(i64 1, i8* %98) #100019, !dbg !100736
  call void @llvm.dbg.declare(metadata %"struct.ap_uint<2>"* %B_13_12, metadata !100737, metadata !DIExpression()), !dbg !100785
  %99 = bitcast %"struct.ap_range_ref<14, false>"* %ref.tmp31 to i8*, !dbg !100786
  call void @llvm.lifetime.start.p0i8(i64 16, i8* %99) #100019, !dbg !100786
  %100 = bitcast %"struct.ap_uint<14>"* %B_13_0 to %"struct.ap_int_base<14, false>"*, !dbg !100786
  call void @_ZN11ap_int_baseILi14ELb0EE5rangeEii(%"struct.ap_range_ref<14, false>"* sret %ref.tmp31, %"struct.ap_int_base<14, false>"* %100, i32 13, i32 12), !dbg !100787
  call void @_ZN7ap_uintILi2EEC2ILi14ELb0EEERK12ap_range_refIXT_EXT0_EE(%"struct.ap_uint<2>"* %B_13_12, %"struct.ap_range_ref<14, false>"* dereferenceable(16) %ref.tmp31), !dbg !100786
  %101 = bitcast %"struct.ap_range_ref<14, false>"* %ref.tmp31 to i8*, !dbg !100785
  call void @llvm.lifetime.end.p0i8(i64 16, i8* %101) #100019, !dbg !100785
  %102 = bitcast %"struct.ap_uint<2>"* %T_13_12 to i8*, !dbg !100788
  call void @llvm.lifetime.start.p0i8(i64 1, i8* %102) #100019, !dbg !100788
  call void @llvm.dbg.declare(metadata %"struct.ap_uint<2>"* %T_13_12, metadata !100789, metadata !DIExpression()), !dbg !100790
  %103 = bitcast %"struct.ap_int<34>"* %ref.tmp32 to i8*, !dbg !100791
  call void @llvm.lifetime.start.p0i8(i64 8, i8* %103) #100019, !dbg !100791
  %104 = bitcast %"struct.ap_int<33>"* %ref.tmp33 to i8*, !dbg !100791
  call void @llvm.lifetime.start.p0i8(i64 8, i8* %104) #100019, !dbg !100791
  %105 = bitcast %"struct.ap_uint<2>"* %B_13_12 to %"struct.ap_int_base<2, false>"*, !dbg !100791
  %106 = zext i1 %L_carry_out.0 to i64, !dbg !100792
  %cond = select i1 %L_carry_out.0, i32 1, i32 0, !dbg !100792
  call void @"_ZplILi2ELb0EEN11ap_int_baseIXT_EXT0_EE5RTypeIXL3$_032EEXLb1EEE4plusERKS1_i"(%"struct.ap_int<33>"* sret %ref.tmp33, %"struct.ap_int_base<2, false>"* dereferenceable(1) %105, i32 %cond), !dbg !100793
  %107 = bitcast %"struct.ap_int<33>"* %ref.tmp33 to %"struct.ap_int_base<33, true>"*, !dbg !100791
  %108 = zext i1 %call9 to i64, !dbg !100794
  %cond34 = select i1 %call9, i32 1, i32 0, !dbg !100794
  call void @"_ZplILi33ELb1EEN11ap_int_baseIXT_EXT0_EE5RTypeIXL3$_032EEXLb1EEE4plusERKS1_i"(%"struct.ap_int<34>"* sret %ref.tmp32, %"struct.ap_int_base<33, true>"* dereferenceable(8) %107, i32 %cond34), !dbg !100795
  call void @_ZN7ap_uintILi2EEC2ILi34EEERK6ap_intIXT_EE(%"struct.ap_uint<2>"* %T_13_12, %"struct.ap_int<34>"* dereferenceable(8) %ref.tmp32), !dbg !100791
  %109 = bitcast %"struct.ap_int<33>"* %ref.tmp33 to i8*, !dbg !100790
  call void @llvm.lifetime.end.p0i8(i64 8, i8* %109) #100019, !dbg !100790
  %110 = bitcast %"struct.ap_int<34>"* %ref.tmp32 to i8*, !dbg !100790
  call void @llvm.lifetime.end.p0i8(i64 8, i8* %110) #100019, !dbg !100790
  %111 = bitcast %"struct.ap_uint<2>"* %T_13_12 to %"struct.ap_int_base<2, false>"*, !dbg !100796
  %call35 = call dereferenceable(1) %"struct.ap_int_base<2, false>"* @_ZaNILi2ELb0EER11ap_int_baseIXT_EXT0_EES2_i(%"struct.ap_int_base<2, false>"* dereferenceable(1) %111, i32 3), !dbg !100797
  %112 = bitcast %"struct.ap_uint<14>"* %T_13_0 to %"struct.ap_int_base<14, false>"*, !dbg !100798
  %call36 = call dereferenceable(2) %"struct.ap_int_base<14, false>"* @_ZaNILi14ELb0EER11ap_int_baseIXT_EXT0_EES2_i(%"struct.ap_int_base<14, false>"* dereferenceable(2) %112, i32 4095), !dbg !100799
  %113 = bitcast %"struct.ap_uint<14>"* %ref.tmp37 to i8*, !dbg !100800
  call void @llvm.lifetime.start.p0i8(i64 2, i8* %113) #100019, !dbg !100800
  %114 = bitcast %"struct.ap_concat_ref<2, ap_int_base<2, false>, 14, ap_range_ref<14, false> >"* %ref.tmp38 to i8*, !dbg !100800
  call void @llvm.lifetime.start.p0i8(i64 16, i8* %114) #100019, !dbg !100800
  %115 = bitcast %"struct.ap_uint<2>"* %T_13_12 to %"struct.ap_int_base<2, false>"*, !dbg !100801
  %116 = bitcast %"struct.ap_range_ref<14, false>"* %ref.tmp39 to i8*, !dbg !100802
  call void @llvm.lifetime.start.p0i8(i64 16, i8* %116) #100019, !dbg !100802
  %117 = bitcast %"struct.ap_uint<14>"* %T_13_0 to %"struct.ap_int_base<14, false>"*, !dbg !100802
  call void @_ZN11ap_int_baseILi14ELb0EE5rangeEii(%"struct.ap_range_ref<14, false>"* sret %ref.tmp39, %"struct.ap_int_base<14, false>"* %117, i32 11, i32 0), !dbg !100803
  call void @_ZNK11ap_int_baseILi2ELb0EEcmILi14ELb0EEE13ap_concat_refILi2ES0_XT_E12ap_range_refIXT_EXT0_EEERKS4_(%"struct.ap_concat_ref<2, ap_int_base<2, false>, 14, ap_range_ref<14, false> >"* sret %ref.tmp38, %"struct.ap_int_base<2, false>"* %115, %"struct.ap_range_ref<14, false>"* dereferenceable(16) %ref.tmp39), !dbg !100804
  call void @_ZN7ap_uintILi14EEC2ILi2E11ap_int_baseILi2ELb0EELi14E12ap_range_refILi14ELb0EEEERK13ap_concat_refIXT_ET0_XT1_ET2_E(%"struct.ap_uint<14>"* %ref.tmp37, %"struct.ap_concat_ref<2, ap_int_base<2, false>, 14, ap_range_ref<14, false> >"* dereferenceable(16) %ref.tmp38), !dbg !100800
  %118 = load %"struct.ap_uint<14>", %"struct.ap_uint<14>"* %ref.tmp37, align 2, !dbg !100805
  store %"struct.ap_uint<14>" %118, %"struct.ap_uint<14>"* %T_13_0, align 2, !dbg !100805
  %119 = bitcast %"struct.ap_range_ref<14, false>"* %ref.tmp39 to i8*, !dbg !100806
  call void @llvm.lifetime.end.p0i8(i64 16, i8* %119) #100019, !dbg !100806
  %120 = bitcast %"struct.ap_concat_ref<2, ap_int_base<2, false>, 14, ap_range_ref<14, false> >"* %ref.tmp38 to i8*, !dbg !100806
  call void @llvm.lifetime.end.p0i8(i64 16, i8* %120) #100019, !dbg !100806
  %121 = bitcast %"struct.ap_uint<14>"* %ref.tmp37 to i8*, !dbg !100806
  call void @llvm.lifetime.end.p0i8(i64 2, i8* %121) #100019, !dbg !100806
  %122 = bitcast %"struct.ap_uint<3>"* %A3 to i8*, !dbg !100807
  call void @llvm.lifetime.start.p0i8(i64 1, i8* %122) #100019, !dbg !100807
  call void @llvm.dbg.declare(metadata %"struct.ap_uint<3>"* %A3, metadata !100808, metadata !DIExpression()), !dbg !100809
  %123 = bitcast %"struct.ap_int<65>"* %ref.tmp40 to i8*, !dbg !100810
  call void @llvm.lifetime.start.p0i8(i64 16, i8* %123) #100019, !dbg !100810
  %124 = bitcast %"struct.ap_uint<64>"* %ref.tmp41 to i8*, !dbg !100811
  call void @llvm.lifetime.start.p0i8(i64 8, i8* %124) #100019, !dbg !100811
  %125 = bitcast %"struct.ap_uint<64>"* %addr to %"struct.ap_int_base<64, false>"*, !dbg !100812
  %126 = bitcast %"struct.ap_int<33>"* %ref.tmp42 to i8*, !dbg !100813
  call void @llvm.lifetime.start.p0i8(i64 8, i8* %126) #100019, !dbg !100813
  %127 = bitcast %"struct.ap_uint<6>"* %E to %"struct.ap_int_base<6, false>"*, !dbg !100814
  call void @"_ZplILi6ELb0EEN11ap_int_baseIXT_EXT0_EE5RTypeIXL3$_032EEXLb1EEE4plusERKS1_i"(%"struct.ap_int<33>"* sret %ref.tmp42, %"struct.ap_int_base<6, false>"* dereferenceable(1) %127, i32 11), !dbg !100815
  %128 = bitcast %"struct.ap_int<33>"* %ref.tmp42 to %"struct.ap_int_base<33, true>"*, !dbg !100813
  call void @_ZNK11ap_int_baseILi64ELb0EErsILi33EEE7ap_uintILi64EERKS_IXT_ELb1EE(%"struct.ap_uint<64>"* sret %ref.tmp41, %"struct.ap_int_base<64, false>"* %125, %"struct.ap_int_base<33, true>"* dereferenceable(8) %128), !dbg !100816
  %129 = bitcast %"struct.ap_uint<64>"* %ref.tmp41 to %"struct.ap_int_base<64, false>"*, !dbg !100811
  call void @"_ZanILi64ELb0EEN11ap_int_baseIXT_EXT0_EE5RTypeIXL3$_032EEXLb1EEE5logicERKS1_i"(%"struct.ap_int<65>"* sret %ref.tmp40, %"struct.ap_int_base<64, false>"* dereferenceable(8) %129, i32 7), !dbg !100817
  call void @_ZN7ap_uintILi3EEC2ILi65EEERK6ap_intIXT_EE(%"struct.ap_uint<3>"* %A3, %"struct.ap_int<65>"* dereferenceable(16) %ref.tmp40), !dbg !100810
  %130 = bitcast %"struct.ap_int<33>"* %ref.tmp42 to i8*, !dbg !100809
  call void @llvm.lifetime.end.p0i8(i64 8, i8* %130) #100019, !dbg !100809
  %131 = bitcast %"struct.ap_uint<64>"* %ref.tmp41 to i8*, !dbg !100809
  call void @llvm.lifetime.end.p0i8(i64 8, i8* %131) #100019, !dbg !100809
  %132 = bitcast %"struct.ap_int<65>"* %ref.tmp40 to i8*, !dbg !100809
  call void @llvm.lifetime.end.p0i8(i64 16, i8* %132) #100019, !dbg !100809
  %133 = bitcast %"struct.ap_uint<3>"* %T3 to i8*, !dbg !100818
  call void @llvm.lifetime.start.p0i8(i64 1, i8* %133) #100019, !dbg !100818
  call void @llvm.dbg.declare(metadata %"struct.ap_uint<3>"* %T3, metadata !100819, metadata !DIExpression()), !dbg !100820
  %134 = bitcast %"struct.ap_range_ref<14, false>"* %ref.tmp43 to i8*, !dbg !100821
  call void @llvm.lifetime.start.p0i8(i64 16, i8* %134) #100019, !dbg !100821
  %135 = bitcast %"struct.ap_uint<14>"* %T_13_0 to %"struct.ap_int_base<14, false>"*, !dbg !100821
  call void @_ZN11ap_int_baseILi14ELb0EE5rangeEii(%"struct.ap_range_ref<14, false>"* sret %ref.tmp43, %"struct.ap_int_base<14, false>"* %135, i32 13, i32 11), !dbg !100822
  call void @_ZN7ap_uintILi3EEC2ILi14ELb0EEERK12ap_range_refIXT_EXT0_EE(%"struct.ap_uint<3>"* %T3, %"struct.ap_range_ref<14, false>"* dereferenceable(16) %ref.tmp43), !dbg !100821
  %136 = bitcast %"struct.ap_range_ref<14, false>"* %ref.tmp43 to i8*, !dbg !100820
  call void @llvm.lifetime.end.p0i8(i64 16, i8* %136) #100019, !dbg !100820
  %137 = bitcast %"struct.ap_uint<3>"* %B3 to i8*, !dbg !100823
  call void @llvm.lifetime.start.p0i8(i64 1, i8* %137) #100019, !dbg !100823
  call void @llvm.dbg.declare(metadata %"struct.ap_uint<3>"* %B3, metadata !100824, metadata !DIExpression()), !dbg !100825
  %138 = bitcast %"struct.ap_range_ref<14, false>"* %ref.tmp44 to i8*, !dbg !100826
  call void @llvm.lifetime.start.p0i8(i64 16, i8* %138) #100019, !dbg !100826
  %139 = bitcast %"struct.ap_uint<14>"* %B_13_0 to %"struct.ap_int_base<14, false>"*, !dbg !100826
  call void @_ZN11ap_int_baseILi14ELb0EE5rangeEii(%"struct.ap_range_ref<14, false>"* sret %ref.tmp44, %"struct.ap_int_base<14, false>"* %139, i32 13, i32 11), !dbg !100827
  call void @_ZN7ap_uintILi3EEC2ILi14ELb0EEERK12ap_range_refIXT_EXT0_EE(%"struct.ap_uint<3>"* %B3, %"struct.ap_range_ref<14, false>"* dereferenceable(16) %ref.tmp44), !dbg !100826
  %140 = bitcast %"struct.ap_range_ref<14, false>"* %ref.tmp44 to i8*, !dbg !100825
  call void @llvm.lifetime.end.p0i8(i64 16, i8* %140) #100019, !dbg !100825
  %141 = bitcast %"struct.ap_uint<3>"* %R to i8*, !dbg !100828
  call void @llvm.lifetime.start.p0i8(i64 1, i8* %141) #100019, !dbg !100828
  call void @llvm.dbg.declare(metadata %"struct.ap_uint<3>"* %R, metadata !100829, metadata !DIExpression()), !dbg !100830
  %142 = bitcast %"struct.ap_int<33>"* %ref.tmp45 to i8*, !dbg !100831
  call void @llvm.lifetime.start.p0i8(i64 8, i8* %142) #100019, !dbg !100831
  %143 = bitcast %"struct.ap_uint<3>"* %B3 to %"struct.ap_int_base<3, false>"*, !dbg !100831
  call void @"_ZmiILi3ELb0EEN11ap_int_baseIXT_EXT0_EE5RTypeIXL3$_032EEXLb1EEE5minusERKS1_i"(%"struct.ap_int<33>"* sret %ref.tmp45, %"struct.ap_int_base<3, false>"* dereferenceable(1) %143, i32 1), !dbg !100832
  call void @_ZN7ap_uintILi3EEC2ILi33EEERK6ap_intIXT_EE(%"struct.ap_uint<3>"* %R, %"struct.ap_int<33>"* dereferenceable(8) %ref.tmp45), !dbg !100831
  %144 = bitcast %"struct.ap_int<33>"* %ref.tmp45 to i8*, !dbg !100830
  call void @llvm.lifetime.end.p0i8(i64 8, i8* %144) #100019, !dbg !100830
  %145 = bitcast %"struct.ap_uint<2>"* %c_t to i8*, !dbg !100833
  call void @llvm.lifetime.start.p0i8(i64 1, i8* %145) #100019, !dbg !100833
  call void @llvm.dbg.declare(metadata %"struct.ap_uint<2>"* %c_t, metadata !100834, metadata !DIExpression()), !dbg !100879
  call void @_ZN6ap_intILi2EEC2Ei(%"struct.ap_uint<2>"* %c_t, i32 0), !dbg !100880
  %146 = bitcast %"struct.ap_uint<2>"* %c_b to i8*, !dbg !100881
  call void @llvm.lifetime.start.p0i8(i64 1, i8* %146) #100019, !dbg !100881
  call void @llvm.dbg.declare(metadata %"struct.ap_uint<2>"* %c_b, metadata !100882, metadata !DIExpression()), !dbg !100883
  call void @_ZN6ap_intILi2EEC2Ei(%"struct.ap_uint<2>"* %c_b, i32 0), !dbg !100884
  %147 = bitcast %"struct.ap_uint<3>"* %A3 to %"struct.ap_int_base<3, false>"*, !dbg !100885
  %148 = bitcast %"struct.ap_uint<3>"* %R to %"struct.ap_int_base<3, false>"*, !dbg !100887
  %call46 = call zeroext i1 @_ZNK11ap_int_baseILi3ELb0EEltILi3ELb0EEEbRKS_IXT_EXT0_EE(%"struct.ap_int_base<3, false>"* %147, %"struct.ap_int_base<3, false>"* dereferenceable(1) %148), !dbg !100888
  br i1 %call46, label %land.lhs.true, label %if.else50, !dbg !100889

land.lhs.true:                                    ; preds = %if.end
  %149 = bitcast %"struct.ap_uint<3>"* %T3 to %"struct.ap_int_base<3, false>"*, !dbg !100890
  %150 = bitcast %"struct.ap_uint<3>"* %R to %"struct.ap_int_base<3, false>"*, !dbg !100891
  %call47 = call zeroext i1 @_ZNK11ap_int_baseILi3ELb0EEltILi3ELb0EEEbRKS_IXT_EXT0_EE(%"struct.ap_int_base<3, false>"* %149, %"struct.ap_int_base<3, false>"* dereferenceable(1) %150), !dbg !100892
  br i1 %call47, label %if.else50, label %if.then48, !dbg !100893

if.then48:                                        ; preds = %land.lhs.true
  %151 = bitcast %"struct.ap_uint<2>"* %ref.tmp49 to i8*, !dbg !100894
  call void @llvm.lifetime.start.p0i8(i64 1, i8* %151) #100019, !dbg !100894
  call void @_ZN6ap_intILi2EEC2Ei(%"struct.ap_uint<2>"* %ref.tmp49, i32 -1), !dbg !100894
  %152 = load %"struct.ap_uint<2>", %"struct.ap_uint<2>"* %ref.tmp49, align 1, !dbg !100896
  store %"struct.ap_uint<2>" %152, %"struct.ap_uint<2>"* %c_t, align 1, !dbg !100896
  %153 = bitcast %"struct.ap_uint<2>"* %ref.tmp49 to i8*, !dbg !100897
  call void @llvm.lifetime.end.p0i8(i64 1, i8* %153) #100019, !dbg !100897
  br label %if.end57, !dbg !100898

if.else50:                                        ; preds = %land.lhs.true, %if.end
  %154 = bitcast %"struct.ap_uint<3>"* %A3 to %"struct.ap_int_base<3, false>"*, !dbg !100899
  %155 = bitcast %"struct.ap_uint<3>"* %R to %"struct.ap_int_base<3, false>"*, !dbg !100901
  %call51 = call zeroext i1 @_ZNK11ap_int_baseILi3ELb0EEltILi3ELb0EEEbRKS_IXT_EXT0_EE(%"struct.ap_int_base<3, false>"* %154, %"struct.ap_int_base<3, false>"* dereferenceable(1) %155), !dbg !100902
  br i1 %call51, label %if.end56, label %land.lhs.true52, !dbg !100903

land.lhs.true52:                                  ; preds = %if.else50
  %156 = bitcast %"struct.ap_uint<3>"* %T3 to %"struct.ap_int_base<3, false>"*, !dbg !100904
  %157 = bitcast %"struct.ap_uint<3>"* %R to %"struct.ap_int_base<3, false>"*, !dbg !100905
  %call53 = call zeroext i1 @_ZNK11ap_int_baseILi3ELb0EEltILi3ELb0EEEbRKS_IXT_EXT0_EE(%"struct.ap_int_base<3, false>"* %156, %"struct.ap_int_base<3, false>"* dereferenceable(1) %157), !dbg !100906
  br i1 %call53, label %if.then54, label %if.end56, !dbg !100907

if.then54:                                        ; preds = %land.lhs.true52
  %158 = bitcast %"struct.ap_uint<2>"* %ref.tmp55 to i8*, !dbg !100908
  call void @llvm.lifetime.start.p0i8(i64 1, i8* %158) #100019, !dbg !100908
  call void @_ZN6ap_intILi2EEC2Ei(%"struct.ap_uint<2>"* %ref.tmp55, i32 1), !dbg !100908
  %159 = load %"struct.ap_uint<2>", %"struct.ap_uint<2>"* %ref.tmp55, align 1, !dbg !100910
  store %"struct.ap_uint<2>" %159, %"struct.ap_uint<2>"* %c_t, align 1, !dbg !100910
  %160 = bitcast %"struct.ap_uint<2>"* %ref.tmp55 to i8*, !dbg !100911
  call void @llvm.lifetime.end.p0i8(i64 1, i8* %160) #100019, !dbg !100911
  br label %if.end56, !dbg !100912

if.end56:                                         ; preds = %if.then54, %land.lhs.true52, %if.else50
  br label %if.end57

if.end57:                                         ; preds = %if.end56, %if.then48
  %161 = bitcast %"struct.ap_uint<3>"* %A3 to %"struct.ap_int_base<3, false>"*, !dbg !100913
  %162 = bitcast %"struct.ap_uint<3>"* %R to %"struct.ap_int_base<3, false>"*, !dbg !100915
  %call58 = call zeroext i1 @_ZNK11ap_int_baseILi3ELb0EEltILi3ELb0EEEbRKS_IXT_EXT0_EE(%"struct.ap_int_base<3, false>"* %161, %"struct.ap_int_base<3, false>"* dereferenceable(1) %162), !dbg !100916
  br i1 %call58, label %land.lhs.true59, label %if.else63, !dbg !100917

land.lhs.true59:                                  ; preds = %if.end57
  %163 = bitcast %"struct.ap_uint<3>"* %B3 to %"struct.ap_int_base<3, false>"*, !dbg !100918
  %164 = bitcast %"struct.ap_uint<3>"* %R to %"struct.ap_int_base<3, false>"*, !dbg !100919
  %call60 = call zeroext i1 @_ZNK11ap_int_baseILi3ELb0EEltILi3ELb0EEEbRKS_IXT_EXT0_EE(%"struct.ap_int_base<3, false>"* %163, %"struct.ap_int_base<3, false>"* dereferenceable(1) %164), !dbg !100920
  br i1 %call60, label %if.else63, label %if.then61, !dbg !100921

if.then61:                                        ; preds = %land.lhs.true59
  %165 = bitcast %"struct.ap_uint<2>"* %ref.tmp62 to i8*, !dbg !100922
  call void @llvm.lifetime.start.p0i8(i64 1, i8* %165) #100019, !dbg !100922
  call void @_ZN6ap_intILi2EEC2Ei(%"struct.ap_uint<2>"* %ref.tmp62, i32 -1), !dbg !100922
  %166 = load %"struct.ap_uint<2>", %"struct.ap_uint<2>"* %ref.tmp62, align 1, !dbg !100924
  store %"struct.ap_uint<2>" %166, %"struct.ap_uint<2>"* %c_b, align 1, !dbg !100924
  %167 = bitcast %"struct.ap_uint<2>"* %ref.tmp62 to i8*, !dbg !100925
  call void @llvm.lifetime.end.p0i8(i64 1, i8* %167) #100019, !dbg !100925
  br label %if.end70, !dbg !100926

if.else63:                                        ; preds = %land.lhs.true59, %if.end57
  %168 = bitcast %"struct.ap_uint<3>"* %A3 to %"struct.ap_int_base<3, false>"*, !dbg !100927
  %169 = bitcast %"struct.ap_uint<3>"* %R to %"struct.ap_int_base<3, false>"*, !dbg !100929
  %call64 = call zeroext i1 @_ZNK11ap_int_baseILi3ELb0EEltILi3ELb0EEEbRKS_IXT_EXT0_EE(%"struct.ap_int_base<3, false>"* %168, %"struct.ap_int_base<3, false>"* dereferenceable(1) %169), !dbg !100930
  br i1 %call64, label %if.end69, label %land.lhs.true65, !dbg !100931

land.lhs.true65:                                  ; preds = %if.else63
  %170 = bitcast %"struct.ap_uint<3>"* %T3 to %"struct.ap_int_base<3, false>"*, !dbg !100932
  %171 = bitcast %"struct.ap_uint<3>"* %R to %"struct.ap_int_base<3, false>"*, !dbg !100933
  %call66 = call zeroext i1 @_ZNK11ap_int_baseILi3ELb0EEltILi3ELb0EEEbRKS_IXT_EXT0_EE(%"struct.ap_int_base<3, false>"* %170, %"struct.ap_int_base<3, false>"* dereferenceable(1) %171), !dbg !100934
  br i1 %call66, label %if.then67, label %if.end69, !dbg !100935

if.then67:                                        ; preds = %land.lhs.true65
  %172 = bitcast %"struct.ap_uint<2>"* %ref.tmp68 to i8*, !dbg !100936
  call void @llvm.lifetime.start.p0i8(i64 1, i8* %172) #100019, !dbg !100936
  call void @_ZN6ap_intILi2EEC2Ei(%"struct.ap_uint<2>"* %ref.tmp68, i32 1), !dbg !100936
  %173 = load %"struct.ap_uint<2>", %"struct.ap_uint<2>"* %ref.tmp68, align 1, !dbg !100938
  store %"struct.ap_uint<2>" %173, %"struct.ap_uint<2>"* %c_b, align 1, !dbg !100938
  %174 = bitcast %"struct.ap_uint<2>"* %ref.tmp68 to i8*, !dbg !100939
  call void @llvm.lifetime.end.p0i8(i64 1, i8* %174) #100019, !dbg !100939
  br label %if.end69, !dbg !100940

if.end69:                                         ; preds = %if.then67, %land.lhs.true65, %if.else63
  br label %if.end70

if.end70:                                         ; preds = %if.end69, %if.then61
  %175 = bitcast %"struct.ap_uint<64>"* %addr to %"struct.ap_int_base<64, false>"*, !dbg !100941
  %176 = bitcast %"struct.ap_int<33>"* %ref.tmp71 to i8*, !dbg !100942
  call void @llvm.lifetime.start.p0i8(i64 8, i8* %176) #100019, !dbg !100942
  %177 = bitcast %"struct.ap_uint<6>"* %E to %"struct.ap_int_base<6, false>"*, !dbg !100943
  call void @"_ZplILi6ELb0EEN11ap_int_baseIXT_EXT0_EE5RTypeIXL3$_032EEXLb1EEE4plusERKS1_i"(%"struct.ap_int<33>"* sret %ref.tmp71, %"struct.ap_int_base<6, false>"* dereferenceable(1) %177, i32 14), !dbg !100944
  %178 = bitcast %"struct.ap_int<33>"* %ref.tmp71 to %"struct.ap_int_base<33, true>"*, !dbg !100942
  call void @_ZNK11ap_int_baseILi64ELb0EErsILi33EEE7ap_uintILi64EERKS_IXT_ELb1EE(%"struct.ap_uint<64>"* sret %tmp72, %"struct.ap_int_base<64, false>"* %175, %"struct.ap_int_base<33, true>"* dereferenceable(8) %178), !dbg !100945
  %179 = bitcast %"struct.ap_uint<64>"* %tmp72 to %"struct.ap_int_base<64, false>"*, !dbg !100941
  %call73 = call i64 @_ZNK11ap_int_baseILi64ELb0EEcvyEv(%"struct.ap_int_base<64, false>"* %179), !dbg !100941
  %conv = trunc i64 %call73 to i32, !dbg !100941
  %180 = bitcast %"struct.ap_int<33>"* %ref.tmp71 to i8*, !dbg !100941
  call void @llvm.lifetime.end.p0i8(i64 8, i8* %180) #100019, !dbg !100941
  call void @llvm.dbg.value(metadata i32 %conv, metadata !100946, metadata !DIExpression()), !dbg !100947
  %181 = bitcast %"struct.ap_int<34>"* %ref.tmp74 to i8*, !dbg !100948
  call void @llvm.lifetime.start.p0i8(i64 8, i8* %181) #100019, !dbg !100948
  %182 = bitcast %"struct.ap_uint<2>"* %c_t to %"struct.ap_int_base<2, false>"*, !dbg !100949
  call void @"_ZplILi2ELb1EEN11ap_int_baseIXT_EXT0_EE5RTypeIXL3$_032EEXLb0EEE4plusEjRKS1_"(%"struct.ap_int<34>"* sret %tmp75, i32 %conv, %"struct.ap_int_base<2, false>"* dereferenceable(1) %182), !dbg !100950
  %183 = bitcast %"struct.ap_int<34>"* %tmp75 to %"struct.ap_int_base<34, true>"*, !dbg !100951
  %184 = bitcast %"struct.ap_int<33>"* %ref.tmp76 to i8*, !dbg !100952
  call void @llvm.lifetime.start.p0i8(i64 8, i8* %184) #100019, !dbg !100952
  %185 = bitcast %"struct.ap_uint<6>"* %E to %"struct.ap_int_base<6, false>"*, !dbg !100953
  call void @"_ZplILi6ELb0EEN11ap_int_baseIXT_EXT0_EE5RTypeIXL3$_032EEXLb1EEE4plusERKS1_i"(%"struct.ap_int<33>"* sret %ref.tmp76, %"struct.ap_int_base<6, false>"* dereferenceable(1) %185, i32 14), !dbg !100954
  %186 = bitcast %"struct.ap_int<33>"* %ref.tmp76 to %"struct.ap_int_base<33, true>"*, !dbg !100952
  call void @_ZNK11ap_int_baseILi34ELb1EElsILi33EEE6ap_intILi34EERKS_IXT_ELb1EE(%"struct.ap_int<34>"* sret %ref.tmp74, %"struct.ap_int_base<34, true>"* %183, %"struct.ap_int_base<33, true>"* dereferenceable(8) %186), !dbg !100955
  %187 = bitcast %"struct.ap_int<34>"* %ref.tmp74 to %"struct.ap_int_base<34, true>"*, !dbg !100948
  %188 = bitcast %"struct.ap_uint<14>"* %T_13_0 to %"struct.ap_int_base<14, false>"*, !dbg !100956
  call void @"_ZanILi14ELb0EEN11ap_int_baseIXT_EXT0_EE5RTypeIXL3$_032EEXLb1EEE5logicERKS1_i"(%"struct.ap_uint<32>"* sret %tmp77, %"struct.ap_int_base<14, false>"* dereferenceable(2) %188, i32 16383), !dbg !100957
  %189 = bitcast %"struct.ap_uint<32>"* %tmp77 to %"struct.ap_int_base<32, false>"*, !dbg !100958
  %call78 = call i64 @_ZNK11ap_int_baseILi32ELb1EEcvxEv(%"struct.ap_int_base<32, false>"* %189), !dbg !100958
  %conv79 = trunc i64 %call78 to i32, !dbg !100958
  %190 = bitcast %"struct.ap_uint<6>"* %E to %"struct.ap_int_base<6, false>"*, !dbg !100959
  %call80 = call i64 @_ZNK11ap_int_baseILi6ELb0EEcvyEv(%"struct.ap_int_base<6, false>"* %190), !dbg !100959
  %sh_prom = trunc i64 %call80 to i32, !dbg !100960
  %shl = shl i32 %conv79, %sh_prom, !dbg !100960
  call void @"_ZorILi34ELb1EEN11ap_int_baseIXT_EXT0_EE5RTypeIXL3$_032EEXLb0EEE5logicERKS1_j"(%"struct.ap_int<34>"* sret %tmp81, %"struct.ap_int_base<34, true>"* dereferenceable(8) %187, i32 %shl), !dbg !100961
  %191 = bitcast %"struct.ap_int<34>"* %tmp81 to %"struct.ap_int_base<34, true>"*, !dbg !100948
  %call82 = call i64 @_ZNK11ap_int_baseILi34ELb1EEcvxEv(%"struct.ap_int_base<34, true>"* %191), !dbg !100948
  %conv83 = trunc i64 %call82 to i32, !dbg !100948
  %192 = bitcast %"struct.ap_int<33>"* %ref.tmp76 to i8*, !dbg !100948
  call void @llvm.lifetime.end.p0i8(i64 8, i8* %192) #100019, !dbg !100948
  %193 = bitcast %"struct.ap_int<34>"* %ref.tmp74 to i8*, !dbg !100948
  call void @llvm.lifetime.end.p0i8(i64 8, i8* %193) #100019, !dbg !100948
  call void @llvm.dbg.value(metadata i32 %conv83, metadata !100962, metadata !DIExpression()), !dbg !100963
  %194 = bitcast %"struct.ap_int<34>"* %ref.tmp84 to i8*, !dbg !100964
  call void @llvm.lifetime.start.p0i8(i64 8, i8* %194) #100019, !dbg !100964
  %195 = bitcast %"struct.ap_uint<2>"* %c_b to %"struct.ap_int_base<2, false>"*, !dbg !100965
  call void @"_ZplILi2ELb1EEN11ap_int_baseIXT_EXT0_EE5RTypeIXL3$_032EEXLb0EEE4plusEjRKS1_"(%"struct.ap_int<34>"* sret %tmp85, i32 %conv, %"struct.ap_int_base<2, false>"* dereferenceable(1) %195), !dbg !100966
  %196 = bitcast %"struct.ap_int<34>"* %tmp85 to %"struct.ap_int_base<34, true>"*, !dbg !100967
  %197 = bitcast %"struct.ap_int<33>"* %ref.tmp86 to i8*, !dbg !100968
  call void @llvm.lifetime.start.p0i8(i64 8, i8* %197) #100019, !dbg !100968
  %198 = bitcast %"struct.ap_uint<6>"* %E to %"struct.ap_int_base<6, false>"*, !dbg !100969
  call void @"_ZplILi6ELb0EEN11ap_int_baseIXT_EXT0_EE5RTypeIXL3$_032EEXLb1EEE4plusERKS1_i"(%"struct.ap_int<33>"* sret %ref.tmp86, %"struct.ap_int_base<6, false>"* dereferenceable(1) %198, i32 14), !dbg !100970
  %199 = bitcast %"struct.ap_int<33>"* %ref.tmp86 to %"struct.ap_int_base<33, true>"*, !dbg !100968
  call void @_ZNK11ap_int_baseILi34ELb1EElsILi33EEE6ap_intILi34EERKS_IXT_ELb1EE(%"struct.ap_int<34>"* sret %ref.tmp84, %"struct.ap_int_base<34, true>"* %196, %"struct.ap_int_base<33, true>"* dereferenceable(8) %199), !dbg !100971
  %200 = bitcast %"struct.ap_int<34>"* %ref.tmp84 to %"struct.ap_int_base<34, true>"*, !dbg !100964
  %201 = bitcast %"struct.ap_uint<14>"* %B_13_0 to %"struct.ap_int_base<14, false>"*, !dbg !100972
  call void @"_ZanILi14ELb0EEN11ap_int_baseIXT_EXT0_EE5RTypeIXL3$_032EEXLb1EEE5logicERKS1_i"(%"struct.ap_uint<32>"* sret %tmp87, %"struct.ap_int_base<14, false>"* dereferenceable(2) %201, i32 16383), !dbg !100973
  %202 = bitcast %"struct.ap_uint<32>"* %tmp87 to %"struct.ap_int_base<32, false>"*, !dbg !100974
  %call88 = call i64 @_ZNK11ap_int_baseILi32ELb1EEcvxEv(%"struct.ap_int_base<32, false>"* %202), !dbg !100974
  %conv89 = trunc i64 %call88 to i32, !dbg !100974
  %203 = bitcast %"struct.ap_uint<6>"* %E to %"struct.ap_int_base<6, false>"*, !dbg !100975
  %call90 = call i64 @_ZNK11ap_int_baseILi6ELb0EEcvyEv(%"struct.ap_int_base<6, false>"* %203), !dbg !100975
  %sh_prom91 = trunc i64 %call90 to i32, !dbg !100976
  %shl92 = shl i32 %conv89, %sh_prom91, !dbg !100976
  call void @"_ZorILi34ELb1EEN11ap_int_baseIXT_EXT0_EE5RTypeIXL3$_032EEXLb0EEE5logicERKS1_j"(%"struct.ap_int<34>"* sret %tmp93, %"struct.ap_int_base<34, true>"* dereferenceable(8) %200, i32 %shl92), !dbg !100977
  %204 = bitcast %"struct.ap_int<34>"* %tmp93 to %"struct.ap_int_base<34, true>"*, !dbg !100964
  %call94 = call i64 @_ZNK11ap_int_baseILi34ELb1EEcvxEv(%"struct.ap_int_base<34, true>"* %204), !dbg !100964
  %conv95 = trunc i64 %call94 to i32, !dbg !100964
  %205 = bitcast %"struct.ap_int<33>"* %ref.tmp86 to i8*, !dbg !100964
  call void @llvm.lifetime.end.p0i8(i64 8, i8* %205) #100019, !dbg !100964
  %206 = bitcast %"struct.ap_int<34>"* %ref.tmp84 to i8*, !dbg !100964
  call void @llvm.lifetime.end.p0i8(i64 8, i8* %206) #100019, !dbg !100964
  call void @llvm.dbg.value(metadata i32 %conv95, metadata !100978, metadata !DIExpression()), !dbg !100979
  call void @llvm.dbg.declare(metadata %struct.Cap* %agg.result, metadata !100980, metadata !DIExpression()), !dbg !100981
  %207 = bitcast %"struct.ap_uint<64>"* %addr to %"struct.ap_int_base<64, false>"*, !dbg !100982
  call void @"_ZmiILi64ELb0EEN11ap_int_baseIXT_EXT0_EE5RTypeIXL3$_032EEXLb0EEE5minusEjRKS1_"(%"struct.ap_int<65>"* sret %tmp96, i32 %conv95, %"struct.ap_int_base<64, false>"* dereferenceable(8) %207), !dbg !100983
  %208 = bitcast %"struct.ap_int<65>"* %tmp96 to %"struct.ap_int_base<65, true>"*, !dbg !100984
  %call97 = call i64 @_ZNK11ap_int_baseILi65ELb1EEcvxEv(%"struct.ap_int_base<65, true>"* %208), !dbg !100984
  %conv98 = trunc i64 %call97 to i32, !dbg !100984
  %base99 = getelementptr inbounds %struct.Cap, %struct.Cap* %agg.result, i32 0, i32 0, !dbg !100985
  store i32 %conv98, i32* %base99, align 4, !dbg !100986
  %209 = bitcast %"struct.ap_uint<64>"* %addr to %"struct.ap_int_base<64, false>"*, !dbg !100987
  call void @"_ZmiILi64ELb0EEN11ap_int_baseIXT_EXT0_EE5RTypeIXL3$_032EEXLb0EEE5minusEjRKS1_"(%"struct.ap_int<65>"* sret %tmp100, i32 %conv83, %"struct.ap_int_base<64, false>"* dereferenceable(8) %209), !dbg !100988
  %210 = bitcast %"struct.ap_int<65>"* %tmp100 to %"struct.ap_int_base<65, true>"*, !dbg !100989
  %call101 = call i64 @_ZNK11ap_int_baseILi65ELb1EEcvxEv(%"struct.ap_int_base<65, true>"* %210), !dbg !100989
  %conv102 = trunc i64 %call101 to i32, !dbg !100989
  %top103 = getelementptr inbounds %struct.Cap, %struct.Cap* %agg.result, i32 0, i32 1, !dbg !100990
  store i32 %conv102, i32* %top103, align 4, !dbg !100991
  %read104 = getelementptr inbounds %struct.Cap, %struct.Cap* %agg.result, i32 0, i32 2, !dbg !100992
  store i1 %tobool, i1* %read104, align 4, !dbg !100993
  %write105 = getelementptr inbounds %struct.Cap, %struct.Cap* %agg.result, i32 0, i32 3, !dbg !100994
  store i1 %tobool5, i1* %write105, align 1, !dbg !100995
  %211 = bitcast %"struct.ap_uint<2>"* %c_b to i8*, !dbg !100996
  call void @llvm.lifetime.end.p0i8(i64 1, i8* %211) #100019, !dbg !100996
  %212 = bitcast %"struct.ap_uint<2>"* %c_t to i8*, !dbg !100996
  call void @llvm.lifetime.end.p0i8(i64 1, i8* %212) #100019, !dbg !100996
  %213 = bitcast %"struct.ap_uint<3>"* %R to i8*, !dbg !100996
  call void @llvm.lifetime.end.p0i8(i64 1, i8* %213) #100019, !dbg !100996
  %214 = bitcast %"struct.ap_uint<3>"* %B3 to i8*, !dbg !100996
  call void @llvm.lifetime.end.p0i8(i64 1, i8* %214) #100019, !dbg !100996
  %215 = bitcast %"struct.ap_uint<3>"* %T3 to i8*, !dbg !100996
  call void @llvm.lifetime.end.p0i8(i64 1, i8* %215) #100019, !dbg !100996
  %216 = bitcast %"struct.ap_uint<3>"* %A3 to i8*, !dbg !100996
  call void @llvm.lifetime.end.p0i8(i64 1, i8* %216) #100019, !dbg !100996
  %217 = bitcast %"struct.ap_uint<2>"* %T_13_12 to i8*, !dbg !100996
  call void @llvm.lifetime.end.p0i8(i64 1, i8* %217) #100019, !dbg !100996
  %218 = bitcast %"struct.ap_uint<2>"* %B_13_12 to i8*, !dbg !100996
  call void @llvm.lifetime.end.p0i8(i64 1, i8* %218) #100019, !dbg !100996
  %219 = bitcast %"struct.ap_uint<14>"* %B_13_0 to i8*, !dbg !100996
  call void @llvm.lifetime.end.p0i8(i64 2, i8* %219) #100019, !dbg !100996
  %220 = bitcast %"struct.ap_uint<14>"* %T_13_0 to i8*, !dbg !100996
  call void @llvm.lifetime.end.p0i8(i64 2, i8* %220) #100019, !dbg !100996
  %221 = bitcast %"struct.ap_uint<6>"* %E to i8*, !dbg !100996
  call void @llvm.lifetime.end.p0i8(i64 1, i8* %221) #100019, !dbg !100996
  %222 = bitcast %"struct.ap_uint<3>"* %B_E to i8*, !dbg !100996
  call void @llvm.lifetime.end.p0i8(i64 1, i8* %222) #100019, !dbg !100996
  %223 = bitcast %"struct.ap_uint<11>"* %B_13_3 to i8*, !dbg !100996
  call void @llvm.lifetime.end.p0i8(i64 2, i8* %223) #100019, !dbg !100996
  %224 = bitcast %"struct.ap_uint<3>"* %T_E to i8*, !dbg !100996
  call void @llvm.lifetime.end.p0i8(i64 1, i8* %224) #100019, !dbg !100996
  %225 = bitcast %"struct.ap_uint<9>"* %T_11_3 to i8*, !dbg !100996
  call void @llvm.lifetime.end.p0i8(i64 2, i8* %225) #100019, !dbg !100996
  %226 = bitcast %"struct.ap_uint<64>"* %addr to i8*, !dbg !100996
  call void @llvm.lifetime.end.p0i8(i64 8, i8* %226) #100019, !dbg !100996
  %227 = bitcast %"struct.ap_uint<64>"* %cap to i8*, !dbg !100996
  call void @llvm.lifetime.end.p0i8(i64 8, i8* %227) #100019, !dbg !100996
  ret void, !dbg !100996
}

; Function Attrs: nounwind readnone speculatable
declare void @llvm.dbg.declare(metadata, metadata, metadata) #100001

; Function Attrs: argmemonly nounwind
declare void @llvm.lifetime.start.p0i8(i64, i8* nocapture) #100002

; Function Attrs: alwaysinline nounwind
define linkonce_odr void @_ZN11ap_int_baseILi32ELb0EEcmILi32ELb0EEE13ap_concat_refILi32ES0_XT_ES_IXT_EXT0_EEERS3_(%"struct.ap_concat_ref<32, ap_int_base<32, false>, 32, ap_int_base<32, false> >"* noalias sret %agg.result, %"struct.ap_int_base<32, false>"* %this, %"struct.ap_int_base<32, false>"* dereferenceable(4) %a2) #100003 comdat align 2 !fpga.function.pragma !100997 {
entry:
  call void @_ZN13ap_concat_refILi32E11ap_int_baseILi32ELb0EELi32ES1_EC2ERS1_S3_(%"struct.ap_concat_ref<32, ap_int_base<32, false>, 32, ap_int_base<32, false> >"* %agg.result, %"struct.ap_int_base<32, false>"* dereferenceable(4) %this, %"struct.ap_int_base<32, false>"* dereferenceable(4) %a2)
  ret void
}

; Function Attrs: alwaysinline nounwind
define linkonce_odr void @_ZN7ap_uintILi64EEC2ILi32E11ap_int_baseILi32ELb0EELi32ES3_EERK13ap_concat_refIXT_ET0_XT1_ET2_E(%"struct.ap_uint<64>"* %this, %"struct.ap_concat_ref<32, ap_int_base<32, false>, 32, ap_int_base<32, false> >"* dereferenceable(16) %ref) unnamed_addr #100003 comdat align 2 !fpga.function.pragma !100997 {
entry:
  %0 = bitcast %"struct.ap_uint<64>"* %this to %"struct.ap_int_base<64, false>"*
  call void @_ZN11ap_int_baseILi64ELb0EEC2ILi32ES_ILi32ELb0EELi32ES2_EERK13ap_concat_refIXT_ET0_XT1_ET2_E(%"struct.ap_int_base<64, false>"* %0, %"struct.ap_concat_ref<32, ap_int_base<32, false>, 32, ap_int_base<32, false> >"* dereferenceable(16) %ref)
  ret void
}

; Function Attrs: argmemonly nounwind
declare void @llvm.lifetime.end.p0i8(i64, i8* nocapture) #100002

; Function Attrs: alwaysinline nounwind
define linkonce_odr dereferenceable(8) %"struct.ap_int_base<64, false>"* @_ZeOILi64ELb0EER11ap_int_baseIXT_EXT0_EES2_l(%"struct.ap_int_base<64, false>"* dereferenceable(8) %op, i64 %op2) #100003 comdat !fpga.function.pragma !100997 {
entry:
  %ref.tmp = alloca %"struct.ap_int_base<64, false>", align 8
  %0 = bitcast %"struct.ap_int_base<64, false>"* %ref.tmp to i8*
  call void @llvm.lifetime.start.p0i8(i64 8, i8* %0) #100019
  call void @_ZN11ap_int_baseILi64ELb1EEC2El(%"struct.ap_int_base<64, false>"* %ref.tmp, i64 %op2)
  %call = call dereferenceable(8) %"struct.ap_int_base<64, false>"* @_ZN11ap_int_baseILi64ELb0EEeOILi64ELb1EEERS0_RKS_IXT_EXT0_EE(%"struct.ap_int_base<64, false>"* %op, %"struct.ap_int_base<64, false>"* dereferenceable(8) %ref.tmp)
  %1 = bitcast %"struct.ap_int_base<64, false>"* %ref.tmp to i8*
  call void @llvm.lifetime.end.p0i8(i64 8, i8* %1) #100019
  ret %"struct.ap_int_base<64, false>"* %call
}

; Function Attrs: alwaysinline nounwind
define linkonce_odr void @_ZN11ap_int_baseILi64ELb0EE5rangeEii(%"struct.ap_range_ref<64, false>"* noalias sret %agg.result, %"struct.ap_int_base<64, false>"* %this, i32 %Hi, i32 %Lo) #100004 comdat align 2 !fpga.function.pragma !100997 {
entry:
  call void @_ZN12ap_range_refILi64ELb0EEC2EP11ap_int_baseILi64ELb0EEii(%"struct.ap_range_ref<64, false>"* %agg.result, %"struct.ap_int_base<64, false>"* %this, i32 %Hi, i32 %Lo)
  ret void
}

; Function Attrs: alwaysinline nounwind
define linkonce_odr i64 @_ZNK12ap_range_refILi64ELb0EEcvyEv(%"struct.ap_range_ref<64, false>"* %this) #100003 comdat align 2 !fpga.function.pragma !100997 {
entry:
  %call = call i64 @_ZNK12ap_range_refILi64ELb0EE9to_uint64Ev(%"struct.ap_range_ref<64, false>"* %this)
  ret i64 %call
}

; Function Attrs: alwaysinline nounwind
define linkonce_odr zeroext i1 @_ZneILi64ELb0EEbRK12ap_range_refIXT_EXT0_EEi(%"struct.ap_range_ref<64, false>"* dereferenceable(16) %op, i32 %op2) #100003 comdat !fpga.function.pragma !100997 {
entry:
  %tmp = alloca %"struct.ap_int_base<64, false>", align 8
  %ref.tmp = alloca %"struct.ap_int_base<32, false>", align 4
  call void @_ZN11ap_int_baseILi64ELb0EEC2ILi64ELb0EEERK12ap_range_refIXT_EXT0_EE(%"struct.ap_int_base<64, false>"* %tmp, %"struct.ap_range_ref<64, false>"* dereferenceable(16) %op)
  %0 = bitcast %"struct.ap_int_base<32, false>"* %ref.tmp to i8*
  call void @llvm.lifetime.start.p0i8(i64 4, i8* %0) #100019
  call void @_ZN11ap_int_baseILi32ELb1EEC2Ei(%"struct.ap_int_base<32, false>"* %ref.tmp, i32 %op2)
  %call = call zeroext i1 @_ZNK11ap_int_baseILi64ELb0EEneILi32ELb1EEEbRKS_IXT_EXT0_EE(%"struct.ap_int_base<64, false>"* %tmp, %"struct.ap_int_base<32, false>"* dereferenceable(4) %ref.tmp)
  %1 = bitcast %"struct.ap_int_base<32, false>"* %ref.tmp to i8*
  call void @llvm.lifetime.end.p0i8(i64 4, i8* %1) #100019
  ret i1 %call
}

; Function Attrs: alwaysinline nounwind
define linkonce_odr void @_ZN7ap_uintILi9EEC2ILi64ELb0EEERK12ap_range_refIXT_EXT0_EE(%"struct.ap_uint<9>"* %this, %"struct.ap_range_ref<64, false>"* dereferenceable(16) %ref) unnamed_addr #100003 comdat align 2 !fpga.function.pragma !100997 {
entry:
  %0 = bitcast %"struct.ap_uint<9>"* %this to %"struct.ap_int_base<9, false>"*
  call void @_ZN11ap_int_baseILi9ELb0EEC2ILi64ELb0EEERK12ap_range_refIXT_EXT0_EE(%"struct.ap_int_base<9, false>"* %0, %"struct.ap_range_ref<64, false>"* dereferenceable(16) %ref)
  ret void
}

; Function Attrs: alwaysinline nounwind
define linkonce_odr void @_ZN7ap_uintILi3EEC2ILi64ELb0EEERK12ap_range_refIXT_EXT0_EE(%"struct.ap_uint<3>"* %this, %"struct.ap_range_ref<64, false>"* dereferenceable(16) %ref) unnamed_addr #100003 comdat align 2 !fpga.function.pragma !100997 {
entry:
  %0 = bitcast %"struct.ap_uint<3>"* %this to %"struct.ap_int_base<3, false>"*
  call void @_ZN11ap_int_baseILi3ELb0EEC2ILi64ELb0EEERK12ap_range_refIXT_EXT0_EE(%"struct.ap_int_base<3, false>"* %0, %"struct.ap_range_ref<64, false>"* dereferenceable(16) %ref)
  ret void
}

; Function Attrs: alwaysinline nounwind
define linkonce_odr void @_ZN7ap_uintILi11EEC2ILi64ELb0EEERK12ap_range_refIXT_EXT0_EE(%"struct.ap_uint<11>"* %this, %"struct.ap_range_ref<64, false>"* dereferenceable(16) %ref) unnamed_addr #100003 comdat align 2 !fpga.function.pragma !100997 {
entry:
  %0 = bitcast %"struct.ap_uint<11>"* %this to %"struct.ap_int_base<11, false>"*
  call void @_ZN11ap_int_baseILi11ELb0EEC2ILi64ELb0EEERK12ap_range_refIXT_EXT0_EE(%"struct.ap_int_base<11, false>"* %0, %"struct.ap_range_ref<64, false>"* dereferenceable(16) %ref)
  ret void
}

; Function Attrs: alwaysinline nounwind
define linkonce_odr void @_ZN7ap_uintILi6EEC2Ei(%"struct.ap_uint<6>"* %this, i32 %val) unnamed_addr #100003 comdat align 2 !fpga.function.pragma !100997 {
entry:
  %0 = bitcast %"struct.ap_uint<6>"* %this to %"struct.ap_int_base<6, false>"*
  call void @_ZN11ap_int_baseILi6ELb0EEC2Ei(%"struct.ap_int_base<6, false>"* %0, i32 %val)
  %1 = bitcast %"struct.ap_uint<6>"* %this to %"struct.ap_int_base<6, false>"*
  call void @_ZN11ap_int_baseILi6ELb0EE18checkOverflowBaseCIiEEvT_(%"struct.ap_int_base<6, false>"* %1, i32 %val)
  ret void
}

; Function Attrs: alwaysinline nounwind
define linkonce_odr void @_ZN7ap_uintILi14EEC2Ei(%"struct.ap_uint<14>"* %this, i32 %val) unnamed_addr #100003 comdat align 2 !fpga.function.pragma !100997 {
entry:
  %0 = bitcast %"struct.ap_uint<14>"* %this to %"struct.ap_int_base<14, false>"*
  call void @_ZN11ap_int_baseILi14ELb0EEC2Ei(%"struct.ap_int_base<14, false>"* %0, i32 %val)
  %1 = bitcast %"struct.ap_uint<14>"* %this to %"struct.ap_int_base<14, false>"*
  call void @_ZN11ap_int_baseILi14ELb0EE18checkOverflowBaseCIiEEvT_(%"struct.ap_int_base<14, false>"* %1, i32 %val)
  ret void
}

; Function Attrs: alwaysinline nounwind
define linkonce_odr void @_ZN11ap_int_baseILi9ELb0EEcmILi3ELb0EEE13ap_concat_refILi9ES0_XT_ES_IXT_EXT0_EEERS3_(%"struct.ap_concat_ref<9, ap_int_base<9, false>, 3, ap_int_base<3, false> >"* noalias sret %agg.result, %"struct.ap_int_base<9, false>"* %this, %"struct.ap_int_base<3, false>"* dereferenceable(1) %a2) #100003 comdat align 2 !fpga.function.pragma !100997 {
entry:
  call void @_ZN13ap_concat_refILi9E11ap_int_baseILi9ELb0EELi3ES0_ILi3ELb0EEEC2ERS1_RS2_(%"struct.ap_concat_ref<9, ap_int_base<9, false>, 3, ap_int_base<3, false> >"* %agg.result, %"struct.ap_int_base<9, false>"* dereferenceable(2) %this, %"struct.ap_int_base<3, false>"* dereferenceable(1) %a2)
  ret void
}

; Function Attrs: alwaysinline nounwind
define linkonce_odr void @_ZN7ap_uintILi14EEC2ILi9E11ap_int_baseILi9ELb0EELi3ES2_ILi3ELb0EEEERK13ap_concat_refIXT_ET0_XT1_ET2_E(%"struct.ap_uint<14>"* %this, %"struct.ap_concat_ref<9, ap_int_base<9, false>, 3, ap_int_base<3, false> >"* dereferenceable(16) %ref) unnamed_addr #100003 comdat align 2 !fpga.function.pragma !100997 {
entry:
  %0 = bitcast %"struct.ap_uint<14>"* %this to %"struct.ap_int_base<14, false>"*
  call void @_ZN11ap_int_baseILi14ELb0EEC2ILi9ES_ILi9ELb0EELi3ES_ILi3ELb0EEEERK13ap_concat_refIXT_ET0_XT1_ET2_E(%"struct.ap_int_base<14, false>"* %0, %"struct.ap_concat_ref<9, ap_int_base<9, false>, 3, ap_int_base<3, false> >"* dereferenceable(16) %ref)
  ret void
}

; Function Attrs: alwaysinline nounwind
define linkonce_odr void @_ZN11ap_int_baseILi11ELb0EEcmILi3ELb0EEE13ap_concat_refILi11ES0_XT_ES_IXT_EXT0_EEERS3_(%"struct.ap_concat_ref<11, ap_int_base<11, false>, 3, ap_int_base<3, false> >"* noalias sret %agg.result, %"struct.ap_int_base<11, false>"* %this, %"struct.ap_int_base<3, false>"* dereferenceable(1) %a2) #100003 comdat align 2 !fpga.function.pragma !100997 {
entry:
  call void @_ZN13ap_concat_refILi11E11ap_int_baseILi11ELb0EELi3ES0_ILi3ELb0EEEC2ERS1_RS2_(%"struct.ap_concat_ref<11, ap_int_base<11, false>, 3, ap_int_base<3, false> >"* %agg.result, %"struct.ap_int_base<11, false>"* dereferenceable(2) %this, %"struct.ap_int_base<3, false>"* dereferenceable(1) %a2)
  ret void
}

; Function Attrs: alwaysinline nounwind
define linkonce_odr void @_ZN7ap_uintILi14EEC2ILi11E11ap_int_baseILi11ELb0EELi3ES2_ILi3ELb0EEEERK13ap_concat_refIXT_ET0_XT1_ET2_E(%"struct.ap_uint<14>"* %this, %"struct.ap_concat_ref<11, ap_int_base<11, false>, 3, ap_int_base<3, false> >"* dereferenceable(16) %ref) unnamed_addr #100003 comdat align 2 !fpga.function.pragma !100997 {
entry:
  %0 = bitcast %"struct.ap_uint<14>"* %this to %"struct.ap_int_base<14, false>"*
  call void @_ZN11ap_int_baseILi14ELb0EEC2ILi11ES_ILi11ELb0EELi3ES_ILi3ELb0EEEERK13ap_concat_refIXT_ET0_XT1_ET2_E(%"struct.ap_int_base<14, false>"* %0, %"struct.ap_concat_ref<11, ap_int_base<11, false>, 3, ap_int_base<3, false> >"* dereferenceable(16) %ref)
  ret void
}

; Function Attrs: alwaysinline nounwind
define linkonce_odr void @_ZN11ap_int_baseILi14ELb0EE5rangeEii(%"struct.ap_range_ref<14, false>"* noalias sret %agg.result, %"struct.ap_int_base<14, false>"* %this, i32 %Hi, i32 %Lo) #100004 comdat align 2 !fpga.function.pragma !100997 {
entry:
  call void @_ZN12ap_range_refILi14ELb0EEC2EP11ap_int_baseILi14ELb0EEii(%"struct.ap_range_ref<14, false>"* %agg.result, %"struct.ap_int_base<14, false>"* %this, i32 %Hi, i32 %Lo)
  ret void
}

; Function Attrs: alwaysinline nounwind
define linkonce_odr void @_ZN7ap_uintILi12EEC2ILi14ELb0EEERK12ap_range_refIXT_EXT0_EE(%"struct.ap_uint<12>"* %this, %"struct.ap_range_ref<14, false>"* dereferenceable(16) %ref) unnamed_addr #100003 comdat align 2 !fpga.function.pragma !100997 {
entry:
  %0 = bitcast %"struct.ap_uint<12>"* %this to %"struct.ap_int_base<12, false>"*
  call void @_ZN11ap_int_baseILi12ELb0EEC2ILi14ELb0EEERK12ap_range_refIXT_EXT0_EE(%"struct.ap_int_base<12, false>"* %0, %"struct.ap_range_ref<14, false>"* dereferenceable(16) %ref)
  ret void
}

; Function Attrs: alwaysinline nounwind
define linkonce_odr zeroext i1 @_ZNK11ap_int_baseILi12ELb0EEltILi12ELb0EEEbRKS_IXT_EXT0_EE(%"struct.ap_int_base<12, false>"* %this, %"struct.ap_int_base<12, false>"* dereferenceable(2) %op2) #100003 comdat align 2 !fpga.function.pragma !100997 {
entry:
  %0 = bitcast %"struct.ap_int_base<12, false>"* %this to %"struct.ssdm_int<12, false>"*
  %V = getelementptr inbounds %"struct.ssdm_int<12, false>", %"struct.ssdm_int<12, false>"* %0, i32 0, i32 0
  %1 = load i12, i12* %V, align 2
  %conv = zext i12 %1 to i32
  %2 = bitcast %"struct.ap_int_base<12, false>"* %op2 to %"struct.ssdm_int<12, false>"*
  %V2 = getelementptr inbounds %"struct.ssdm_int<12, false>", %"struct.ssdm_int<12, false>"* %2, i32 0, i32 0
  %3 = load i12, i12* %V2, align 2
  %conv3 = zext i12 %3 to i32
  %cmp = icmp slt i32 %conv, %conv3
  ret i1 %cmp
}

; Function Attrs: alwaysinline nounwind
define linkonce_odr void @_ZN11ap_int_baseILi3ELb0EEcmILi3ELb0EEE13ap_concat_refILi3ES0_XT_ES_IXT_EXT0_EEERS3_(%"struct.ap_concat_ref<3, ap_int_base<3, false>, 3, ap_int_base<3, false> >"* noalias sret %agg.result, %"struct.ap_int_base<3, false>"* %this, %"struct.ap_int_base<3, false>"* dereferenceable(1) %a2) #100003 comdat align 2 !fpga.function.pragma !100997 {
entry:
  call void @_ZN13ap_concat_refILi3E11ap_int_baseILi3ELb0EELi3ES1_EC2ERS1_S3_(%"struct.ap_concat_ref<3, ap_int_base<3, false>, 3, ap_int_base<3, false> >"* %agg.result, %"struct.ap_int_base<3, false>"* dereferenceable(1) %this, %"struct.ap_int_base<3, false>"* dereferenceable(1) %a2)
  ret void
}

; Function Attrs: alwaysinline nounwind
define linkonce_odr void @_ZN7ap_uintILi6EEC2ILi3E11ap_int_baseILi3ELb0EELi3ES3_EERK13ap_concat_refIXT_ET0_XT1_ET2_E(%"struct.ap_uint<6>"* %this, %"struct.ap_concat_ref<3, ap_int_base<3, false>, 3, ap_int_base<3, false> >"* dereferenceable(16) %ref) unnamed_addr #100003 comdat align 2 !fpga.function.pragma !100997 {
entry:
  %0 = bitcast %"struct.ap_uint<6>"* %this to %"struct.ap_int_base<6, false>"*
  call void @_ZN11ap_int_baseILi6ELb0EEC2ILi3ES_ILi3ELb0EELi3ES2_EERK13ap_concat_refIXT_ET0_XT1_ET2_E(%"struct.ap_int_base<6, false>"* %0, %"struct.ap_concat_ref<3, ap_int_base<3, false>, 3, ap_int_base<3, false> >"* dereferenceable(16) %ref)
  ret void
}

; Function Attrs: alwaysinline nounwind
define linkonce_odr void @_ZlsILi9ELb0EEN11ap_int_baseIXT_EXT0_EE5RTypeIXT_EXT0_EE4arg1ERKS1_i(%"struct.ap_uint<9>"* noalias sret %agg.result, %"struct.ap_int_base<9, false>"* dereferenceable(2) %op, i32 %op2) #100003 comdat !fpga.function.pragma !100997 {
entry:
  %r = alloca %"struct.ap_int_base<9, false>", align 2
  %0 = bitcast %"struct.ap_int_base<9, false>"* %r to i8*
  call void @llvm.lifetime.start.p0i8(i64 2, i8* %0) #100019
  call void @_ZN11ap_int_baseILi9ELb0EEC2Ei(%"struct.ap_int_base<9, false>"* %r, i32 0)
  %cmp = icmp sge i32 %op2, 0
  br i1 %cmp, label %cond.true, label %cond.false

cond.true:                                        ; preds = %entry
  %1 = bitcast %"struct.ap_int_base<9, false>"* %op to %"struct.ssdm_int<9, false>"*
  %V = getelementptr inbounds %"struct.ssdm_int<9, false>", %"struct.ssdm_int<9, false>"* %1, i32 0, i32 0
  %2 = load i9, i9* %V, align 2
  %conv = zext i9 %2 to i32
  %shl = shl i32 %conv, %op2
  br label %cond.end

cond.false:                                       ; preds = %entry
  %3 = bitcast %"struct.ap_int_base<9, false>"* %op to %"struct.ssdm_int<9, false>"*
  %V1 = getelementptr inbounds %"struct.ssdm_int<9, false>", %"struct.ssdm_int<9, false>"* %3, i32 0, i32 0
  %4 = load i9, i9* %V1, align 2
  %conv2 = zext i9 %4 to i32
  %sub = sub nsw i32 0, %op2
  %shr = ashr i32 %conv2, %sub
  br label %cond.end

cond.end:                                         ; preds = %cond.false, %cond.true
  %cond = phi i32 [ %shl, %cond.true ], [ %shr, %cond.false ]
  %conv3 = trunc i32 %cond to i9
  %5 = bitcast %"struct.ap_int_base<9, false>"* %r to %"struct.ssdm_int<9, false>"*
  %V4 = getelementptr inbounds %"struct.ssdm_int<9, false>", %"struct.ssdm_int<9, false>"* %5, i32 0, i32 0
  store i9 %conv3, i9* %V4, align 2
  call void @_ZN7ap_uintILi9EEC2ILi9ELb0EEERK11ap_int_baseIXT_EXT0_EE(%"struct.ap_uint<9>"* %agg.result, %"struct.ap_int_base<9, false>"* dereferenceable(2) %r)
  %6 = bitcast %"struct.ap_int_base<9, false>"* %r to i8*
  call void @llvm.lifetime.end.p0i8(i64 2, i8* %6) #100019
  ret void
}

; Function Attrs: alwaysinline nounwind
define linkonce_odr void @_ZN7ap_uintILi14EEC2ILi9EEERKS_IXT_EE(%"struct.ap_uint<14>"* %this, %"struct.ap_uint<9>"* dereferenceable(2) %op) unnamed_addr #100003 comdat align 2 !fpga.function.pragma !100997 {
entry:
  %ref.tmp = alloca %"struct.ap_int_base<9, false>", align 2
  %0 = bitcast %"struct.ap_uint<14>"* %this to %"struct.ap_int_base<14, false>"*
  %1 = bitcast %"struct.ap_int_base<9, false>"* %ref.tmp to i8*
  call void @llvm.lifetime.start.p0i8(i64 2, i8* %1) #100019
  %2 = bitcast %"struct.ap_uint<9>"* %op to %"struct.ap_int_base<9, false>"*
  %3 = load %"struct.ap_int_base<9, false>", %"struct.ap_int_base<9, false>"* %2, align 2
  store %"struct.ap_int_base<9, false>" %3, %"struct.ap_int_base<9, false>"* %ref.tmp, align 2
  call void @_ZN11ap_int_baseILi14ELb0EEC2ILi9ELb0EEERKS_IXT_EXT0_EE(%"struct.ap_int_base<14, false>"* %0, %"struct.ap_int_base<9, false>"* dereferenceable(2) %ref.tmp)
  %4 = bitcast %"struct.ap_int_base<9, false>"* %ref.tmp to i8*
  call void @llvm.lifetime.end.p0i8(i64 2, i8* %4) #100019
  %5 = bitcast %"struct.ap_uint<9>"* %op to %"struct.ap_int_base<9, false>"*
  %call = call zeroext i1 @_ZNK11ap_int_baseILi9ELb0EE17checkOverflowCsimEibb(%"struct.ap_int_base<9, false>"* %5, i32 14, i1 zeroext false, i1 zeroext true)
  ret void
}

; Function Attrs: alwaysinline nounwind
define linkonce_odr void @_ZlsILi11ELb0EEN11ap_int_baseIXT_EXT0_EE5RTypeIXT_EXT0_EE4arg1ERKS1_i(%"struct.ap_uint<11>"* noalias sret %agg.result, %"struct.ap_int_base<11, false>"* dereferenceable(2) %op, i32 %op2) #100003 comdat !fpga.function.pragma !100997 {
entry:
  %r = alloca %"struct.ap_int_base<11, false>", align 2
  %0 = bitcast %"struct.ap_int_base<11, false>"* %r to i8*
  call void @llvm.lifetime.start.p0i8(i64 2, i8* %0) #100019
  call void @_ZN11ap_int_baseILi11ELb0EEC2Ei(%"struct.ap_int_base<11, false>"* %r, i32 0)
  %cmp = icmp sge i32 %op2, 0
  br i1 %cmp, label %cond.true, label %cond.false

cond.true:                                        ; preds = %entry
  %1 = bitcast %"struct.ap_int_base<11, false>"* %op to %"struct.ssdm_int<11, false>"*
  %V = getelementptr inbounds %"struct.ssdm_int<11, false>", %"struct.ssdm_int<11, false>"* %1, i32 0, i32 0
  %2 = load i11, i11* %V, align 2
  %conv = zext i11 %2 to i32
  %shl = shl i32 %conv, %op2
  br label %cond.end

cond.false:                                       ; preds = %entry
  %3 = bitcast %"struct.ap_int_base<11, false>"* %op to %"struct.ssdm_int<11, false>"*
  %V1 = getelementptr inbounds %"struct.ssdm_int<11, false>", %"struct.ssdm_int<11, false>"* %3, i32 0, i32 0
  %4 = load i11, i11* %V1, align 2
  %conv2 = zext i11 %4 to i32
  %sub = sub nsw i32 0, %op2
  %shr = ashr i32 %conv2, %sub
  br label %cond.end

cond.end:                                         ; preds = %cond.false, %cond.true
  %cond = phi i32 [ %shl, %cond.true ], [ %shr, %cond.false ]
  %conv3 = trunc i32 %cond to i11
  %5 = bitcast %"struct.ap_int_base<11, false>"* %r to %"struct.ssdm_int<11, false>"*
  %V4 = getelementptr inbounds %"struct.ssdm_int<11, false>", %"struct.ssdm_int<11, false>"* %5, i32 0, i32 0
  store i11 %conv3, i11* %V4, align 2
  call void @_ZN7ap_uintILi11EEC2ILi11ELb0EEERK11ap_int_baseIXT_EXT0_EE(%"struct.ap_uint<11>"* %agg.result, %"struct.ap_int_base<11, false>"* dereferenceable(2) %r)
  %6 = bitcast %"struct.ap_int_base<11, false>"* %r to i8*
  call void @llvm.lifetime.end.p0i8(i64 2, i8* %6) #100019
  ret void
}

; Function Attrs: alwaysinline nounwind
define linkonce_odr void @_ZN7ap_uintILi14EEC2ILi11EEERKS_IXT_EE(%"struct.ap_uint<14>"* %this, %"struct.ap_uint<11>"* dereferenceable(2) %op) unnamed_addr #100003 comdat align 2 !fpga.function.pragma !100997 {
entry:
  %ref.tmp = alloca %"struct.ap_int_base<11, false>", align 2
  %0 = bitcast %"struct.ap_uint<14>"* %this to %"struct.ap_int_base<14, false>"*
  %1 = bitcast %"struct.ap_int_base<11, false>"* %ref.tmp to i8*
  call void @llvm.lifetime.start.p0i8(i64 2, i8* %1) #100019
  %2 = bitcast %"struct.ap_uint<11>"* %op to %"struct.ap_int_base<11, false>"*
  %3 = load %"struct.ap_int_base<11, false>", %"struct.ap_int_base<11, false>"* %2, align 2
  store %"struct.ap_int_base<11, false>" %3, %"struct.ap_int_base<11, false>"* %ref.tmp, align 2
  call void @_ZN11ap_int_baseILi14ELb0EEC2ILi11ELb0EEERKS_IXT_EXT0_EE(%"struct.ap_int_base<14, false>"* %0, %"struct.ap_int_base<11, false>"* dereferenceable(2) %ref.tmp)
  %4 = bitcast %"struct.ap_int_base<11, false>"* %ref.tmp to i8*
  call void @llvm.lifetime.end.p0i8(i64 2, i8* %4) #100019
  %5 = bitcast %"struct.ap_uint<11>"* %op to %"struct.ap_int_base<11, false>"*
  %call = call zeroext i1 @_ZNK11ap_int_baseILi11ELb0EE17checkOverflowCsimEibb(%"struct.ap_int_base<11, false>"* %5, i32 14, i1 zeroext false, i1 zeroext true)
  ret void
}

; Function Attrs: alwaysinline nounwind
define linkonce_odr void @_ZN7ap_uintILi2EEC2ILi14ELb0EEERK12ap_range_refIXT_EXT0_EE(%"struct.ap_uint<2>"* %this, %"struct.ap_range_ref<14, false>"* dereferenceable(16) %ref) unnamed_addr #100003 comdat align 2 !fpga.function.pragma !100997 {
entry:
  %0 = bitcast %"struct.ap_uint<2>"* %this to %"struct.ap_int_base<2, false>"*
  call void @_ZN11ap_int_baseILi2ELb0EEC2ILi14ELb0EEERK12ap_range_refIXT_EXT0_EE(%"struct.ap_int_base<2, false>"* %0, %"struct.ap_range_ref<14, false>"* dereferenceable(16) %ref)
  ret void
}

; Function Attrs: alwaysinline nounwind
define linkonce_odr void @"_ZplILi2ELb0EEN11ap_int_baseIXT_EXT0_EE5RTypeIXL3$_032EEXLb1EEE4plusERKS1_i"(%"struct.ap_int<33>"* noalias sret %agg.result, %"struct.ap_int_base<2, false>"* dereferenceable(1) %op, i32 %i_op) #100003 comdat !fpga.function.pragma !100997 {
entry:
  %ref.tmp = alloca %"struct.ap_int_base<32, false>", align 4
  %0 = bitcast %"struct.ap_int_base<32, false>"* %ref.tmp to i8*
  call void @llvm.lifetime.start.p0i8(i64 4, i8* %0) #100019
  call void @_ZN11ap_int_baseILi32ELb1EEC2Ei(%"struct.ap_int_base<32, false>"* %ref.tmp, i32 %i_op)
  call void @_ZplILi2ELb0ELi32ELb1EEN11ap_int_baseIXT_EXT0_EE5RTypeIXT1_EXT2_EE4plusERKS1_RKS0_IXT1_EXT2_EE(%"struct.ap_int<33>"* sret %agg.result, %"struct.ap_int_base<2, false>"* dereferenceable(1) %op, %"struct.ap_int_base<32, false>"* dereferenceable(4) %ref.tmp)
  %1 = bitcast %"struct.ap_int_base<32, false>"* %ref.tmp to i8*
  call void @llvm.lifetime.end.p0i8(i64 4, i8* %1) #100019
  ret void
}

; Function Attrs: alwaysinline nounwind
define linkonce_odr void @"_ZplILi33ELb1EEN11ap_int_baseIXT_EXT0_EE5RTypeIXL3$_032EEXLb1EEE4plusERKS1_i"(%"struct.ap_int<34>"* noalias sret %agg.result, %"struct.ap_int_base<33, true>"* dereferenceable(8) %op, i32 %i_op) #100003 comdat !fpga.function.pragma !100997 {
entry:
  %ref.tmp = alloca %"struct.ap_int_base<32, false>", align 4
  %0 = bitcast %"struct.ap_int_base<32, false>"* %ref.tmp to i8*
  call void @llvm.lifetime.start.p0i8(i64 4, i8* %0) #100019
  call void @_ZN11ap_int_baseILi32ELb1EEC2Ei(%"struct.ap_int_base<32, false>"* %ref.tmp, i32 %i_op)
  call void @_ZplILi33ELb1ELi32ELb1EEN11ap_int_baseIXT_EXT0_EE5RTypeIXT1_EXT2_EE4plusERKS1_RKS0_IXT1_EXT2_EE(%"struct.ap_int<34>"* sret %agg.result, %"struct.ap_int_base<33, true>"* dereferenceable(8) %op, %"struct.ap_int_base<32, false>"* dereferenceable(4) %ref.tmp)
  %1 = bitcast %"struct.ap_int_base<32, false>"* %ref.tmp to i8*
  call void @llvm.lifetime.end.p0i8(i64 4, i8* %1) #100019
  ret void
}

; Function Attrs: alwaysinline nounwind
define linkonce_odr void @_ZN7ap_uintILi2EEC2ILi34EEERK6ap_intIXT_EE(%"struct.ap_uint<2>"* %this, %"struct.ap_int<34>"* dereferenceable(8) %op) unnamed_addr #100003 comdat align 2 !fpga.function.pragma !100997 {
entry:
  %ref.tmp = alloca %"struct.ap_int_base<34, true>", align 8
  %0 = bitcast %"struct.ap_uint<2>"* %this to %"struct.ap_int_base<2, false>"*
  %1 = bitcast %"struct.ap_int_base<34, true>"* %ref.tmp to i8*
  call void @llvm.lifetime.start.p0i8(i64 8, i8* %1) #100019
  %2 = bitcast %"struct.ap_int<34>"* %op to %"struct.ap_int_base<34, true>"*
  %3 = load %"struct.ap_int_base<34, true>", %"struct.ap_int_base<34, true>"* %2, align 8
  store %"struct.ap_int_base<34, true>" %3, %"struct.ap_int_base<34, true>"* %ref.tmp, align 8
  call void @_ZN11ap_int_baseILi2ELb0EEC2ILi34ELb1EEERKS_IXT_EXT0_EE(%"struct.ap_int_base<2, false>"* %0, %"struct.ap_int_base<34, true>"* dereferenceable(8) %ref.tmp)
  %4 = bitcast %"struct.ap_int_base<34, true>"* %ref.tmp to i8*
  call void @llvm.lifetime.end.p0i8(i64 8, i8* %4) #100019
  %5 = bitcast %"struct.ap_int<34>"* %op to %"struct.ap_int_base<34, true>"*
  %call = call zeroext i1 @_ZNK11ap_int_baseILi34ELb1EE17checkOverflowCsimEibb(%"struct.ap_int_base<34, true>"* %5, i32 2, i1 zeroext false, i1 zeroext true)
  ret void
}

; Function Attrs: alwaysinline nounwind
define linkonce_odr dereferenceable(1) %"struct.ap_int_base<2, false>"* @_ZaNILi2ELb0EER11ap_int_baseIXT_EXT0_EES2_i(%"struct.ap_int_base<2, false>"* dereferenceable(1) %op, i32 %op2) #100003 comdat !fpga.function.pragma !100997 {
entry:
  %ref.tmp = alloca %"struct.ap_int_base<32, false>", align 4
  %0 = bitcast %"struct.ap_int_base<32, false>"* %ref.tmp to i8*
  call void @llvm.lifetime.start.p0i8(i64 4, i8* %0) #100019
  call void @_ZN11ap_int_baseILi32ELb1EEC2Ei(%"struct.ap_int_base<32, false>"* %ref.tmp, i32 %op2)
  %call = call dereferenceable(1) %"struct.ap_int_base<2, false>"* @_ZN11ap_int_baseILi2ELb0EEaNILi32ELb1EEERS0_RKS_IXT_EXT0_EE(%"struct.ap_int_base<2, false>"* %op, %"struct.ap_int_base<32, false>"* dereferenceable(4) %ref.tmp)
  %1 = bitcast %"struct.ap_int_base<32, false>"* %ref.tmp to i8*
  call void @llvm.lifetime.end.p0i8(i64 4, i8* %1) #100019
  ret %"struct.ap_int_base<2, false>"* %call
}

; Function Attrs: alwaysinline nounwind
define linkonce_odr dereferenceable(2) %"struct.ap_int_base<14, false>"* @_ZaNILi14ELb0EER11ap_int_baseIXT_EXT0_EES2_i(%"struct.ap_int_base<14, false>"* dereferenceable(2) %op, i32 %op2) #100003 comdat !fpga.function.pragma !100997 {
entry:
  %ref.tmp = alloca %"struct.ap_int_base<32, false>", align 4
  %0 = bitcast %"struct.ap_int_base<32, false>"* %ref.tmp to i8*
  call void @llvm.lifetime.start.p0i8(i64 4, i8* %0) #100019
  call void @_ZN11ap_int_baseILi32ELb1EEC2Ei(%"struct.ap_int_base<32, false>"* %ref.tmp, i32 %op2)
  %call = call dereferenceable(2) %"struct.ap_int_base<14, false>"* @_ZN11ap_int_baseILi14ELb0EEaNILi32ELb1EEERS0_RKS_IXT_EXT0_EE(%"struct.ap_int_base<14, false>"* %op, %"struct.ap_int_base<32, false>"* dereferenceable(4) %ref.tmp)
  %1 = bitcast %"struct.ap_int_base<32, false>"* %ref.tmp to i8*
  call void @llvm.lifetime.end.p0i8(i64 4, i8* %1) #100019
  ret %"struct.ap_int_base<14, false>"* %call
}

; Function Attrs: alwaysinline nounwind
define linkonce_odr void @_ZNK11ap_int_baseILi2ELb0EEcmILi14ELb0EEE13ap_concat_refILi2ES0_XT_E12ap_range_refIXT_EXT0_EEERKS4_(%"struct.ap_concat_ref<2, ap_int_base<2, false>, 14, ap_range_ref<14, false> >"* noalias sret %agg.result, %"struct.ap_int_base<2, false>"* %this, %"struct.ap_range_ref<14, false>"* dereferenceable(16) %a2) #100003 comdat align 2 !fpga.function.pragma !100997 {
entry:
  call void @_ZN13ap_concat_refILi2E11ap_int_baseILi2ELb0EELi14E12ap_range_refILi14ELb0EEEC2ERS1_RS3_(%"struct.ap_concat_ref<2, ap_int_base<2, false>, 14, ap_range_ref<14, false> >"* %agg.result, %"struct.ap_int_base<2, false>"* dereferenceable(1) %this, %"struct.ap_range_ref<14, false>"* dereferenceable(16) %a2)
  ret void
}

; Function Attrs: alwaysinline nounwind
define linkonce_odr void @_ZN7ap_uintILi14EEC2ILi2E11ap_int_baseILi2ELb0EELi14E12ap_range_refILi14ELb0EEEERK13ap_concat_refIXT_ET0_XT1_ET2_E(%"struct.ap_uint<14>"* %this, %"struct.ap_concat_ref<2, ap_int_base<2, false>, 14, ap_range_ref<14, false> >"* dereferenceable(16) %ref) unnamed_addr #100003 comdat align 2 !fpga.function.pragma !100997 {
entry:
  %0 = bitcast %"struct.ap_uint<14>"* %this to %"struct.ap_int_base<14, false>"*
  call void @_ZN11ap_int_baseILi14ELb0EEC2ILi2ES_ILi2ELb0EELi14E12ap_range_refILi14ELb0EEEERK13ap_concat_refIXT_ET0_XT1_ET2_E(%"struct.ap_int_base<14, false>"* %0, %"struct.ap_concat_ref<2, ap_int_base<2, false>, 14, ap_range_ref<14, false> >"* dereferenceable(16) %ref)
  ret void
}

; Function Attrs: alwaysinline nounwind
define linkonce_odr void @"_ZplILi6ELb0EEN11ap_int_baseIXT_EXT0_EE5RTypeIXL3$_032EEXLb1EEE4plusERKS1_i"(%"struct.ap_int<33>"* noalias sret %agg.result, %"struct.ap_int_base<6, false>"* dereferenceable(1) %op, i32 %i_op) #100003 comdat !fpga.function.pragma !100997 {
entry:
  %ref.tmp = alloca %"struct.ap_int_base<32, false>", align 4
  %0 = bitcast %"struct.ap_int_base<32, false>"* %ref.tmp to i8*
  call void @llvm.lifetime.start.p0i8(i64 4, i8* %0) #100019
  call void @_ZN11ap_int_baseILi32ELb1EEC2Ei(%"struct.ap_int_base<32, false>"* %ref.tmp, i32 %i_op)
  call void @_ZplILi6ELb0ELi32ELb1EEN11ap_int_baseIXT_EXT0_EE5RTypeIXT1_EXT2_EE4plusERKS1_RKS0_IXT1_EXT2_EE(%"struct.ap_int<33>"* sret %agg.result, %"struct.ap_int_base<6, false>"* dereferenceable(1) %op, %"struct.ap_int_base<32, false>"* dereferenceable(4) %ref.tmp)
  %1 = bitcast %"struct.ap_int_base<32, false>"* %ref.tmp to i8*
  call void @llvm.lifetime.end.p0i8(i64 4, i8* %1) #100019
  ret void
}

; Function Attrs: alwaysinline nounwind
define linkonce_odr void @_ZNK11ap_int_baseILi64ELb0EErsILi33EEE7ap_uintILi64EERKS_IXT_ELb1EE(%"struct.ap_uint<64>"* noalias sret %agg.result, %"struct.ap_int_base<64, false>"* %this, %"struct.ap_int_base<33, true>"* dereferenceable(8) %op2) #100003 comdat align 2 !fpga.function.pragma !100997 {
entry:
  %sh = alloca %"struct.ap_int_base<33, true>", align 8
  %ref.tmp = alloca %"struct.ap_int<34>", align 8
  %0 = bitcast %"struct.ap_int_base<33, true>"* %op2 to %"struct.ssdm_int<33, true>"*
  %V = getelementptr inbounds %"struct.ssdm_int<33, true>", %"struct.ssdm_int<33, true>"* %0, i32 0, i32 0
  %1 = load i33, i33* %V, align 8
  %2 = and i33 %1, -4294967296
  %bit_select = icmp ne i33 %2, 0
  %3 = bitcast %"struct.ap_int_base<33, true>"* %sh to i8*
  call void @llvm.lifetime.start.p0i8(i64 8, i8* %3) #100019
  call void @_ZN11ap_int_baseILi33ELb0EEC2ILi33ELb1EEERKS_IXT_EXT0_EE(%"struct.ap_int_base<33, true>"* %sh, %"struct.ap_int_base<33, true>"* dereferenceable(8) %op2)
  br i1 %bit_select, label %if.then, label %if.end

if.then:                                          ; preds = %entry
  %4 = bitcast %"struct.ap_int<34>"* %ref.tmp to i8*
  call void @llvm.lifetime.start.p0i8(i64 8, i8* %4) #100019
  call void @_ZNK11ap_int_baseILi33ELb1EEngEv(%"struct.ap_int<34>"* sret %ref.tmp, %"struct.ap_int_base<33, true>"* %op2)
  %5 = bitcast %"struct.ap_int<34>"* %ref.tmp to %"struct.ap_int_base<34, true>"*
  %call = call dereferenceable(8) %"struct.ap_int_base<33, true>"* @_ZN11ap_int_baseILi33ELb0EEaSILi34ELb1EEERS0_RKS_IXT_EXT0_EE(%"struct.ap_int_base<33, true>"* %sh, %"struct.ap_int_base<34, true>"* dereferenceable(8) %5)
  %6 = bitcast %"struct.ap_int<34>"* %ref.tmp to i8*
  call void @llvm.lifetime.end.p0i8(i64 8, i8* %6) #100019
  call void @_ZNK11ap_int_baseILi64ELb0EElsILi33EEE7ap_uintILi64EERKS_IXT_ELb0EE(%"struct.ap_uint<64>"* sret %agg.result, %"struct.ap_int_base<64, false>"* %this, %"struct.ap_int_base<33, true>"* dereferenceable(8) %sh)
  br label %cleanup

if.end:                                           ; preds = %entry
  call void @_ZNK11ap_int_baseILi64ELb0EErsILi33EEE7ap_uintILi64EERKS_IXT_ELb0EE(%"struct.ap_uint<64>"* sret %agg.result, %"struct.ap_int_base<64, false>"* %this, %"struct.ap_int_base<33, true>"* dereferenceable(8) %sh)
  br label %cleanup

cleanup:                                          ; preds = %if.end, %if.then
  %7 = bitcast %"struct.ap_int_base<33, true>"* %sh to i8*
  call void @llvm.lifetime.end.p0i8(i64 8, i8* %7) #100019
  ret void
}

; Function Attrs: alwaysinline nounwind
define linkonce_odr void @"_ZanILi64ELb0EEN11ap_int_baseIXT_EXT0_EE5RTypeIXL3$_032EEXLb1EEE5logicERKS1_i"(%"struct.ap_int<65>"* noalias sret %agg.result, %"struct.ap_int_base<64, false>"* dereferenceable(8) %op, i32 %i_op) #100003 comdat !fpga.function.pragma !100997 {
entry:
  %ref.tmp = alloca %"struct.ap_int_base<32, false>", align 4
  %0 = bitcast %"struct.ap_int_base<32, false>"* %ref.tmp to i8*
  call void @llvm.lifetime.start.p0i8(i64 4, i8* %0) #100019
  call void @_ZN11ap_int_baseILi32ELb1EEC2Ei(%"struct.ap_int_base<32, false>"* %ref.tmp, i32 %i_op)
  call void @_ZanILi64ELb0ELi32ELb1EEN11ap_int_baseIXT_EXT0_EE5RTypeIXT1_EXT2_EE5logicERKS1_RKS0_IXT1_EXT2_EE(%"struct.ap_int<65>"* sret %agg.result, %"struct.ap_int_base<64, false>"* dereferenceable(8) %op, %"struct.ap_int_base<32, false>"* dereferenceable(4) %ref.tmp)
  %1 = bitcast %"struct.ap_int_base<32, false>"* %ref.tmp to i8*
  call void @llvm.lifetime.end.p0i8(i64 4, i8* %1) #100019
  ret void
}

; Function Attrs: alwaysinline nounwind
define linkonce_odr void @_ZN7ap_uintILi3EEC2ILi65EEERK6ap_intIXT_EE(%"struct.ap_uint<3>"* %this, %"struct.ap_int<65>"* dereferenceable(16) %op) unnamed_addr #100003 comdat align 2 !fpga.function.pragma !100997 {
entry:
  %ref.tmp = alloca %"struct.ap_int_base<65, true>", align 16
  %0 = bitcast %"struct.ap_uint<3>"* %this to %"struct.ap_int_base<3, false>"*
  %1 = bitcast %"struct.ap_int_base<65, true>"* %ref.tmp to i8*
  call void @llvm.lifetime.start.p0i8(i64 16, i8* %1) #100019
  %2 = bitcast %"struct.ap_int<65>"* %op to %"struct.ap_int_base<65, true>"*
  %3 = load %"struct.ap_int_base<65, true>", %"struct.ap_int_base<65, true>"* %2, align 16
  store %"struct.ap_int_base<65, true>" %3, %"struct.ap_int_base<65, true>"* %ref.tmp, align 16
  call void @_ZN11ap_int_baseILi3ELb0EEC2ILi65ELb1EEERKS_IXT_EXT0_EE(%"struct.ap_int_base<3, false>"* %0, %"struct.ap_int_base<65, true>"* dereferenceable(16) %ref.tmp)
  %4 = bitcast %"struct.ap_int_base<65, true>"* %ref.tmp to i8*
  call void @llvm.lifetime.end.p0i8(i64 16, i8* %4) #100019
  %5 = bitcast %"struct.ap_int<65>"* %op to %"struct.ap_int_base<65, true>"*
  %call = call zeroext i1 @_ZNK11ap_int_baseILi65ELb1EE17checkOverflowCsimEibb(%"struct.ap_int_base<65, true>"* %5, i32 3, i1 zeroext false, i1 zeroext true)
  ret void
}

; Function Attrs: alwaysinline nounwind
define linkonce_odr void @_ZN7ap_uintILi3EEC2ILi14ELb0EEERK12ap_range_refIXT_EXT0_EE(%"struct.ap_uint<3>"* %this, %"struct.ap_range_ref<14, false>"* dereferenceable(16) %ref) unnamed_addr #100003 comdat align 2 !fpga.function.pragma !100997 {
entry:
  %0 = bitcast %"struct.ap_uint<3>"* %this to %"struct.ap_int_base<3, false>"*
  call void @_ZN11ap_int_baseILi3ELb0EEC2ILi14ELb0EEERK12ap_range_refIXT_EXT0_EE(%"struct.ap_int_base<3, false>"* %0, %"struct.ap_range_ref<14, false>"* dereferenceable(16) %ref)
  ret void
}

; Function Attrs: alwaysinline nounwind
define linkonce_odr void @"_ZmiILi3ELb0EEN11ap_int_baseIXT_EXT0_EE5RTypeIXL3$_032EEXLb1EEE5minusERKS1_i"(%"struct.ap_int<33>"* noalias sret %agg.result, %"struct.ap_int_base<3, false>"* dereferenceable(1) %op, i32 %i_op) #100003 comdat !fpga.function.pragma !100997 {
entry:
  %ref.tmp = alloca %"struct.ap_int_base<32, false>", align 4
  %0 = bitcast %"struct.ap_int_base<32, false>"* %ref.tmp to i8*
  call void @llvm.lifetime.start.p0i8(i64 4, i8* %0) #100019
  call void @_ZN11ap_int_baseILi32ELb1EEC2Ei(%"struct.ap_int_base<32, false>"* %ref.tmp, i32 %i_op)
  call void @_ZmiILi3ELb0ELi32ELb1EEN11ap_int_baseIXT_EXT0_EE5RTypeIXT1_EXT2_EE5minusERKS1_RKS0_IXT1_EXT2_EE(%"struct.ap_int<33>"* sret %agg.result, %"struct.ap_int_base<3, false>"* dereferenceable(1) %op, %"struct.ap_int_base<32, false>"* dereferenceable(4) %ref.tmp)
  %1 = bitcast %"struct.ap_int_base<32, false>"* %ref.tmp to i8*
  call void @llvm.lifetime.end.p0i8(i64 4, i8* %1) #100019
  ret void
}

; Function Attrs: alwaysinline nounwind
define linkonce_odr void @_ZN7ap_uintILi3EEC2ILi33EEERK6ap_intIXT_EE(%"struct.ap_uint<3>"* %this, %"struct.ap_int<33>"* dereferenceable(8) %op) unnamed_addr #100003 comdat align 2 !fpga.function.pragma !100997 {
entry:
  %ref.tmp = alloca %"struct.ap_int_base<33, true>", align 8
  %0 = bitcast %"struct.ap_uint<3>"* %this to %"struct.ap_int_base<3, false>"*
  %1 = bitcast %"struct.ap_int_base<33, true>"* %ref.tmp to i8*
  call void @llvm.lifetime.start.p0i8(i64 8, i8* %1) #100019
  %2 = bitcast %"struct.ap_int<33>"* %op to %"struct.ap_int_base<33, true>"*
  %3 = load %"struct.ap_int_base<33, true>", %"struct.ap_int_base<33, true>"* %2, align 8
  store %"struct.ap_int_base<33, true>" %3, %"struct.ap_int_base<33, true>"* %ref.tmp, align 8
  call void @_ZN11ap_int_baseILi3ELb0EEC2ILi33ELb1EEERKS_IXT_EXT0_EE(%"struct.ap_int_base<3, false>"* %0, %"struct.ap_int_base<33, true>"* dereferenceable(8) %ref.tmp)
  %4 = bitcast %"struct.ap_int_base<33, true>"* %ref.tmp to i8*
  call void @llvm.lifetime.end.p0i8(i64 8, i8* %4) #100019
  %5 = bitcast %"struct.ap_int<33>"* %op to %"struct.ap_int_base<33, true>"*
  %call = call zeroext i1 @_ZNK11ap_int_baseILi33ELb1EE17checkOverflowCsimEibb(%"struct.ap_int_base<33, true>"* %5, i32 3, i1 zeroext false, i1 zeroext true)
  ret void
}

; Function Attrs: alwaysinline nounwind
define linkonce_odr void @_ZN6ap_intILi2EEC2Ei(%"struct.ap_uint<2>"* %this, i32 %val) unnamed_addr #100003 comdat align 2 !fpga.function.pragma !100997 {
entry:
  %0 = bitcast %"struct.ap_uint<2>"* %this to %"struct.ap_int_base<2, false>"*
  call void @_ZN11ap_int_baseILi2ELb1EEC2Ei(%"struct.ap_int_base<2, false>"* %0, i32 %val)
  %1 = bitcast %"struct.ap_uint<2>"* %this to %"struct.ap_int_base<2, false>"*
  call void @_ZN11ap_int_baseILi2ELb1EE18checkOverflowBaseCIiEEvT_(%"struct.ap_int_base<2, false>"* %1, i32 %val)
  ret void
}

; Function Attrs: alwaysinline nounwind
define linkonce_odr zeroext i1 @_ZNK11ap_int_baseILi3ELb0EEltILi3ELb0EEEbRKS_IXT_EXT0_EE(%"struct.ap_int_base<3, false>"* %this, %"struct.ap_int_base<3, false>"* dereferenceable(1) %op2) #100003 comdat align 2 !fpga.function.pragma !100997 {
entry:
  %0 = bitcast %"struct.ap_int_base<3, false>"* %this to %"struct.ssdm_int<3, false>"*
  %V = getelementptr inbounds %"struct.ssdm_int<3, false>", %"struct.ssdm_int<3, false>"* %0, i32 0, i32 0
  %1 = load i3, i3* %V, align 1
  %conv = zext i3 %1 to i32
  %2 = bitcast %"struct.ap_int_base<3, false>"* %op2 to %"struct.ssdm_int<3, false>"*
  %V2 = getelementptr inbounds %"struct.ssdm_int<3, false>", %"struct.ssdm_int<3, false>"* %2, i32 0, i32 0
  %3 = load i3, i3* %V2, align 1
  %conv3 = zext i3 %3 to i32
  %cmp = icmp slt i32 %conv, %conv3
  ret i1 %cmp
}

; Function Attrs: alwaysinline nounwind
define linkonce_odr i64 @_ZNK11ap_int_baseILi64ELb0EEcvyEv(%"struct.ap_int_base<64, false>"* %this) #100003 comdat align 2 !fpga.function.pragma !100997 {
entry:
  %0 = bitcast %"struct.ap_int_base<64, false>"* %this to %"struct.ssdm_int<64, false>"*
  %V = getelementptr inbounds %"struct.ssdm_int<64, false>", %"struct.ssdm_int<64, false>"* %0, i32 0, i32 0
  %1 = load i64, i64* %V, align 8
  ret i64 %1
}

; Function Attrs: alwaysinline nounwind
define linkonce_odr void @"_ZplILi2ELb1EEN11ap_int_baseIXT_EXT0_EE5RTypeIXL3$_032EEXLb0EEE4plusEjRKS1_"(%"struct.ap_int<34>"* noalias sret %agg.result, i32 %i_op, %"struct.ap_int_base<2, false>"* dereferenceable(1) %op) #100003 comdat !fpga.function.pragma !100997 {
entry:
  %ref.tmp = alloca %"struct.ap_int_base<32, false>", align 4
  %0 = bitcast %"struct.ap_int_base<32, false>"* %ref.tmp to i8*
  call void @llvm.lifetime.start.p0i8(i64 4, i8* %0) #100019
  call void @_ZN11ap_int_baseILi32ELb0EEC2Ej(%"struct.ap_int_base<32, false>"* %ref.tmp, i32 %i_op)
  call void @_ZplILi32ELb0ELi2ELb1EEN11ap_int_baseIXT_EXT0_EE5RTypeIXT1_EXT2_EE4plusERKS1_RKS0_IXT1_EXT2_EE(%"struct.ap_int<34>"* sret %agg.result, %"struct.ap_int_base<32, false>"* dereferenceable(4) %ref.tmp, %"struct.ap_int_base<2, false>"* dereferenceable(1) %op)
  %1 = bitcast %"struct.ap_int_base<32, false>"* %ref.tmp to i8*
  call void @llvm.lifetime.end.p0i8(i64 4, i8* %1) #100019
  ret void
}

; Function Attrs: alwaysinline nounwind
define linkonce_odr void @_ZNK11ap_int_baseILi34ELb1EElsILi33EEE6ap_intILi34EERKS_IXT_ELb1EE(%"struct.ap_int<34>"* noalias sret %agg.result, %"struct.ap_int_base<34, true>"* %this, %"struct.ap_int_base<33, true>"* dereferenceable(8) %op2) #100003 comdat align 2 !fpga.function.pragma !100997 {
entry:
  %sh = alloca %"struct.ap_int_base<33, true>", align 8
  %ref.tmp = alloca %"struct.ap_int<34>", align 8
  %0 = bitcast %"struct.ap_int_base<33, true>"* %op2 to %"struct.ssdm_int<33, true>"*
  %V = getelementptr inbounds %"struct.ssdm_int<33, true>", %"struct.ssdm_int<33, true>"* %0, i32 0, i32 0
  %1 = load i33, i33* %V, align 8
  %2 = and i33 %1, -4294967296
  %bit_select = icmp ne i33 %2, 0
  %3 = bitcast %"struct.ap_int_base<33, true>"* %sh to i8*
  call void @llvm.lifetime.start.p0i8(i64 8, i8* %3) #100019
  call void @_ZN11ap_int_baseILi33ELb0EEC2ILi33ELb1EEERKS_IXT_EXT0_EE(%"struct.ap_int_base<33, true>"* %sh, %"struct.ap_int_base<33, true>"* dereferenceable(8) %op2)
  br i1 %bit_select, label %if.then, label %if.else

if.then:                                          ; preds = %entry
  %4 = bitcast %"struct.ap_int<34>"* %ref.tmp to i8*
  call void @llvm.lifetime.start.p0i8(i64 8, i8* %4) #100019
  call void @_ZNK11ap_int_baseILi33ELb1EEngEv(%"struct.ap_int<34>"* sret %ref.tmp, %"struct.ap_int_base<33, true>"* %op2)
  %5 = bitcast %"struct.ap_int<34>"* %ref.tmp to %"struct.ap_int_base<34, true>"*
  %call = call dereferenceable(8) %"struct.ap_int_base<33, true>"* @_ZN11ap_int_baseILi33ELb0EEaSILi34ELb1EEERS0_RKS_IXT_EXT0_EE(%"struct.ap_int_base<33, true>"* %sh, %"struct.ap_int_base<34, true>"* dereferenceable(8) %5)
  %6 = bitcast %"struct.ap_int<34>"* %ref.tmp to i8*
  call void @llvm.lifetime.end.p0i8(i64 8, i8* %6) #100019
  call void @_ZNK11ap_int_baseILi34ELb1EErsILi33EEE6ap_intILi34EERKS_IXT_ELb0EE(%"struct.ap_int<34>"* sret %agg.result, %"struct.ap_int_base<34, true>"* %this, %"struct.ap_int_base<33, true>"* dereferenceable(8) %sh)
  br label %cleanup

if.else:                                          ; preds = %entry
  call void @_ZNK11ap_int_baseILi34ELb1EElsILi33EEE6ap_intILi34EERKS_IXT_ELb0EE(%"struct.ap_int<34>"* sret %agg.result, %"struct.ap_int_base<34, true>"* %this, %"struct.ap_int_base<33, true>"* dereferenceable(8) %sh)
  br label %cleanup

cleanup:                                          ; preds = %if.else, %if.then
  %7 = bitcast %"struct.ap_int_base<33, true>"* %sh to i8*
  call void @llvm.lifetime.end.p0i8(i64 8, i8* %7) #100019
  ret void
}

; Function Attrs: alwaysinline nounwind
define linkonce_odr void @"_ZanILi14ELb0EEN11ap_int_baseIXT_EXT0_EE5RTypeIXL3$_032EEXLb1EEE5logicERKS1_i"(%"struct.ap_uint<32>"* noalias sret %agg.result, %"struct.ap_int_base<14, false>"* dereferenceable(2) %op, i32 %i_op) #100003 comdat !fpga.function.pragma !100997 {
entry:
  %ref.tmp = alloca %"struct.ap_int_base<32, false>", align 4
  %0 = bitcast %"struct.ap_int_base<32, false>"* %ref.tmp to i8*
  call void @llvm.lifetime.start.p0i8(i64 4, i8* %0) #100019
  call void @_ZN11ap_int_baseILi32ELb1EEC2Ei(%"struct.ap_int_base<32, false>"* %ref.tmp, i32 %i_op)
  call void @_ZanILi14ELb0ELi32ELb1EEN11ap_int_baseIXT_EXT0_EE5RTypeIXT1_EXT2_EE5logicERKS1_RKS0_IXT1_EXT2_EE(%"struct.ap_uint<32>"* sret %agg.result, %"struct.ap_int_base<14, false>"* dereferenceable(2) %op, %"struct.ap_int_base<32, false>"* dereferenceable(4) %ref.tmp)
  %1 = bitcast %"struct.ap_int_base<32, false>"* %ref.tmp to i8*
  call void @llvm.lifetime.end.p0i8(i64 4, i8* %1) #100019
  ret void
}

; Function Attrs: alwaysinline nounwind
define linkonce_odr i64 @_ZNK11ap_int_baseILi32ELb1EEcvxEv(%"struct.ap_int_base<32, false>"* %this) #100003 comdat align 2 !fpga.function.pragma !100997 {
entry:
  %0 = bitcast %"struct.ap_int_base<32, false>"* %this to %"struct.ssdm_int<32, false>"*
  %V = getelementptr inbounds %"struct.ssdm_int<32, false>", %"struct.ssdm_int<32, false>"* %0, i32 0, i32 0
  %1 = load i32, i32* %V, align 4
  %conv = sext i32 %1 to i64
  ret i64 %conv
}

; Function Attrs: alwaysinline nounwind
define linkonce_odr i64 @_ZNK11ap_int_baseILi6ELb0EEcvyEv(%"struct.ap_int_base<6, false>"* %this) #100003 comdat align 2 !fpga.function.pragma !100997 {
entry:
  %0 = bitcast %"struct.ap_int_base<6, false>"* %this to %"struct.ssdm_int<6, false>"*
  %V = getelementptr inbounds %"struct.ssdm_int<6, false>", %"struct.ssdm_int<6, false>"* %0, i32 0, i32 0
  %1 = load i6, i6* %V, align 1
  %conv = zext i6 %1 to i64
  ret i64 %conv
}

; Function Attrs: alwaysinline nounwind
define linkonce_odr void @"_ZorILi34ELb1EEN11ap_int_baseIXT_EXT0_EE5RTypeIXL3$_032EEXLb0EEE5logicERKS1_j"(%"struct.ap_int<34>"* noalias sret %agg.result, %"struct.ap_int_base<34, true>"* dereferenceable(8) %op, i32 %i_op) #100003 comdat !fpga.function.pragma !100997 {
entry:
  %ref.tmp = alloca %"struct.ap_int_base<32, false>", align 4
  %0 = bitcast %"struct.ap_int_base<32, false>"* %ref.tmp to i8*
  call void @llvm.lifetime.start.p0i8(i64 4, i8* %0) #100019
  call void @_ZN11ap_int_baseILi32ELb0EEC2Ej(%"struct.ap_int_base<32, false>"* %ref.tmp, i32 %i_op)
  call void @_ZorILi34ELb1ELi32ELb0EEN11ap_int_baseIXT_EXT0_EE5RTypeIXT1_EXT2_EE5logicERKS1_RKS0_IXT1_EXT2_EE(%"struct.ap_int<34>"* sret %agg.result, %"struct.ap_int_base<34, true>"* dereferenceable(8) %op, %"struct.ap_int_base<32, false>"* dereferenceable(4) %ref.tmp)
  %1 = bitcast %"struct.ap_int_base<32, false>"* %ref.tmp to i8*
  call void @llvm.lifetime.end.p0i8(i64 4, i8* %1) #100019
  ret void
}

; Function Attrs: alwaysinline nounwind
define linkonce_odr i64 @_ZNK11ap_int_baseILi34ELb1EEcvxEv(%"struct.ap_int_base<34, true>"* %this) #100003 comdat align 2 !fpga.function.pragma !100997 {
entry:
  %0 = bitcast %"struct.ap_int_base<34, true>"* %this to %"struct.ssdm_int<34, true>"*
  %V = getelementptr inbounds %"struct.ssdm_int<34, true>", %"struct.ssdm_int<34, true>"* %0, i32 0, i32 0
  %1 = load i34, i34* %V, align 8
  %conv = sext i34 %1 to i64
  ret i64 %conv
}

; Function Attrs: alwaysinline nounwind
define linkonce_odr void @"_ZmiILi64ELb0EEN11ap_int_baseIXT_EXT0_EE5RTypeIXL3$_032EEXLb0EEE5minusEjRKS1_"(%"struct.ap_int<65>"* noalias sret %agg.result, i32 %i_op, %"struct.ap_int_base<64, false>"* dereferenceable(8) %op) #100003 comdat !fpga.function.pragma !100997 {
entry:
  %ref.tmp = alloca %"struct.ap_int_base<32, false>", align 4
  %0 = bitcast %"struct.ap_int_base<32, false>"* %ref.tmp to i8*
  call void @llvm.lifetime.start.p0i8(i64 4, i8* %0) #100019
  call void @_ZN11ap_int_baseILi32ELb0EEC2Ej(%"struct.ap_int_base<32, false>"* %ref.tmp, i32 %i_op)
  call void @_ZmiILi32ELb0ELi64ELb0EEN11ap_int_baseIXT_EXT0_EE5RTypeIXT1_EXT2_EE5minusERKS1_RKS0_IXT1_EXT2_EE(%"struct.ap_int<65>"* sret %agg.result, %"struct.ap_int_base<32, false>"* dereferenceable(4) %ref.tmp, %"struct.ap_int_base<64, false>"* dereferenceable(8) %op)
  %1 = bitcast %"struct.ap_int_base<32, false>"* %ref.tmp to i8*
  call void @llvm.lifetime.end.p0i8(i64 4, i8* %1) #100019
  ret void
}

; Function Attrs: alwaysinline nounwind
define linkonce_odr i64 @_ZNK11ap_int_baseILi65ELb1EEcvxEv(%"struct.ap_int_base<65, true>"* %this) #100003 comdat align 2 !fpga.function.pragma !100997 {
entry:
  %0 = bitcast %"struct.ap_int_base<65, true>"* %this to %"struct.ssdm_int<65, true>"*
  %V = getelementptr inbounds %"struct.ssdm_int<65, true>", %"struct.ssdm_int<65, true>"* %0, i32 0, i32 0
  %1 = load i65, i65* %V, align 16
  %conv = trunc i65 %1 to i64
  ret i64 %conv
}

; Function Attrs: alwaysinline nounwind
define linkonce_odr void @_ZN11ap_int_baseILi32ELb0EEC2Ej(%"struct.ap_int_base<32, false>"* %this, i32 %op) unnamed_addr #100003 comdat align 2 !fpga.function.pragma !100997 {
entry:
  %0 = bitcast %"struct.ap_int_base<32, false>"* %this to %"struct.ssdm_int<32, false>"*
  call void @_ZN8ssdm_intILi32ELb0EEC2Ej(%"struct.ssdm_int<32, false>"* %0, i32 %op)
  %1 = bitcast %"struct.ap_int_base<32, false>"* %this to %"struct.ssdm_int<32, false>"*
  %V = getelementptr inbounds %"struct.ssdm_int<32, false>", %"struct.ssdm_int<32, false>"* %1, i32 0, i32 0
  store i32 %op, i32* %V, align 4
  ret void
}

; Function Attrs: alwaysinline nounwind
define linkonce_odr void @_ZmiILi32ELb0ELi64ELb0EEN11ap_int_baseIXT_EXT0_EE5RTypeIXT1_EXT2_EE5minusERKS1_RKS0_IXT1_EXT2_EE(%"struct.ap_int<65>"* noalias sret %agg.result, %"struct.ap_int_base<32, false>"* dereferenceable(4) %op, %"struct.ap_int_base<64, false>"* dereferenceable(8) %op2) #100003 comdat !fpga.function.pragma !100997 {
entry:
  %lhs = alloca %"struct.ap_int_base<65, true>", align 16
  %rhs = alloca %"struct.ap_int_base<65, true>", align 16
  %ret = alloca %"struct.ap_int_base<65, true>", align 16
  %0 = bitcast %"struct.ap_int_base<65, true>"* %lhs to i8*
  call void @llvm.lifetime.start.p0i8(i64 16, i8* %0) #100019
  call void @_ZN11ap_int_baseILi65ELb1EEC2ILi32ELb0EEERKS_IXT_EXT0_EE(%"struct.ap_int_base<65, true>"* %lhs, %"struct.ap_int_base<32, false>"* dereferenceable(4) %op)
  %1 = bitcast %"struct.ap_int_base<65, true>"* %rhs to i8*
  call void @llvm.lifetime.start.p0i8(i64 16, i8* %1) #100019
  call void @_ZN11ap_int_baseILi65ELb1EEC2ILi64ELb0EEERKS_IXT_EXT0_EE(%"struct.ap_int_base<65, true>"* %rhs, %"struct.ap_int_base<64, false>"* dereferenceable(8) %op2)
  %2 = bitcast %"struct.ap_int_base<65, true>"* %ret to i8*
  call void @llvm.lifetime.start.p0i8(i64 16, i8* %2) #100019
  call void @_ZN11ap_int_baseILi65ELb1EEC2Ei(%"struct.ap_int_base<65, true>"* %ret, i32 0)
  %3 = bitcast %"struct.ap_int_base<65, true>"* %lhs to %"struct.ssdm_int<65, true>"*
  %V = getelementptr inbounds %"struct.ssdm_int<65, true>", %"struct.ssdm_int<65, true>"* %3, i32 0, i32 0
  %4 = load i65, i65* %V, align 16
  %5 = bitcast %"struct.ap_int_base<65, true>"* %rhs to %"struct.ssdm_int<65, true>"*
  %V1 = getelementptr inbounds %"struct.ssdm_int<65, true>", %"struct.ssdm_int<65, true>"* %5, i32 0, i32 0
  %6 = load i65, i65* %V1, align 16
  %sub = sub nsw i65 %4, %6
  %7 = bitcast %"struct.ap_int_base<65, true>"* %ret to %"struct.ssdm_int<65, true>"*
  %V2 = getelementptr inbounds %"struct.ssdm_int<65, true>", %"struct.ssdm_int<65, true>"* %7, i32 0, i32 0
  store i65 %sub, i65* %V2, align 16
  call void @_ZN6ap_intILi65EEC2ILi65ELb1EEERK11ap_int_baseIXT_EXT0_EE(%"struct.ap_int<65>"* %agg.result, %"struct.ap_int_base<65, true>"* dereferenceable(16) %ret)
  %8 = bitcast %"struct.ap_int_base<65, true>"* %ret to i8*
  call void @llvm.lifetime.end.p0i8(i64 16, i8* %8) #100019
  %9 = bitcast %"struct.ap_int_base<65, true>"* %rhs to i8*
  call void @llvm.lifetime.end.p0i8(i64 16, i8* %9) #100019
  %10 = bitcast %"struct.ap_int_base<65, true>"* %lhs to i8*
  call void @llvm.lifetime.end.p0i8(i64 16, i8* %10) #100019
  ret void
}

; Function Attrs: alwaysinline nounwind
define linkonce_odr void @_ZN11ap_int_baseILi65ELb1EEC2ILi32ELb0EEERKS_IXT_EXT0_EE(%"struct.ap_int_base<65, true>"* %this, %"struct.ap_int_base<32, false>"* dereferenceable(4) %op) unnamed_addr #100003 comdat align 2 !fpga.function.pragma !100997 {
entry:
  %0 = bitcast %"struct.ap_int_base<65, true>"* %this to %"struct.ssdm_int<65, true>"*
  %1 = bitcast %"struct.ap_int_base<32, false>"* %op to %"struct.ssdm_int<32, false>"*
  %V = getelementptr inbounds %"struct.ssdm_int<32, false>", %"struct.ssdm_int<32, false>"* %1, i32 0, i32 0
  %2 = load i32, i32* %V, align 4
  %conv = zext i32 %2 to i65
  call void @_ZN8ssdm_intILi65ELb1EEC2EDq65_i(%"struct.ssdm_int<65, true>"* %0, i65 %conv)
  %3 = bitcast %"struct.ap_int_base<32, false>"* %op to %"struct.ssdm_int<32, false>"*
  %V2 = getelementptr inbounds %"struct.ssdm_int<32, false>", %"struct.ssdm_int<32, false>"* %3, i32 0, i32 0
  %4 = load i32, i32* %V2, align 4
  %conv3 = zext i32 %4 to i65
  %5 = bitcast %"struct.ap_int_base<65, true>"* %this to %"struct.ssdm_int<65, true>"*
  %V4 = getelementptr inbounds %"struct.ssdm_int<65, true>", %"struct.ssdm_int<65, true>"* %5, i32 0, i32 0
  store i65 %conv3, i65* %V4, align 16
  ret void
}

; Function Attrs: alwaysinline nounwind
define linkonce_odr void @_ZN11ap_int_baseILi65ELb1EEC2ILi64ELb0EEERKS_IXT_EXT0_EE(%"struct.ap_int_base<65, true>"* %this, %"struct.ap_int_base<64, false>"* dereferenceable(8) %op) unnamed_addr #100003 comdat align 2 !fpga.function.pragma !100997 {
entry:
  %0 = bitcast %"struct.ap_int_base<65, true>"* %this to %"struct.ssdm_int<65, true>"*
  %1 = bitcast %"struct.ap_int_base<64, false>"* %op to %"struct.ssdm_int<64, false>"*
  %V = getelementptr inbounds %"struct.ssdm_int<64, false>", %"struct.ssdm_int<64, false>"* %1, i32 0, i32 0
  %2 = load i64, i64* %V, align 8
  %conv = zext i64 %2 to i65
  call void @_ZN8ssdm_intILi65ELb1EEC2EDq65_i(%"struct.ssdm_int<65, true>"* %0, i65 %conv)
  %3 = bitcast %"struct.ap_int_base<64, false>"* %op to %"struct.ssdm_int<64, false>"*
  %V2 = getelementptr inbounds %"struct.ssdm_int<64, false>", %"struct.ssdm_int<64, false>"* %3, i32 0, i32 0
  %4 = load i64, i64* %V2, align 8
  %conv3 = zext i64 %4 to i65
  %5 = bitcast %"struct.ap_int_base<65, true>"* %this to %"struct.ssdm_int<65, true>"*
  %V4 = getelementptr inbounds %"struct.ssdm_int<65, true>", %"struct.ssdm_int<65, true>"* %5, i32 0, i32 0
  store i65 %conv3, i65* %V4, align 16
  ret void
}

; Function Attrs: alwaysinline nounwind
define linkonce_odr void @_ZN11ap_int_baseILi65ELb1EEC2Ei(%"struct.ap_int_base<65, true>"* %this, i32 %op) unnamed_addr #100003 comdat align 2 !fpga.function.pragma !100997 {
entry:
  %0 = bitcast %"struct.ap_int_base<65, true>"* %this to %"struct.ssdm_int<65, true>"*
  %conv = sext i32 %op to i65
  call void @_ZN8ssdm_intILi65ELb1EEC2EDq65_i(%"struct.ssdm_int<65, true>"* %0, i65 %conv)
  %conv2 = sext i32 %op to i65
  %1 = bitcast %"struct.ap_int_base<65, true>"* %this to %"struct.ssdm_int<65, true>"*
  %V = getelementptr inbounds %"struct.ssdm_int<65, true>", %"struct.ssdm_int<65, true>"* %1, i32 0, i32 0
  store i65 %conv2, i65* %V, align 16
  ret void
}

; Function Attrs: alwaysinline nounwind
define linkonce_odr void @_ZN6ap_intILi65EEC2ILi65ELb1EEERK11ap_int_baseIXT_EXT0_EE(%"struct.ap_int<65>"* %this, %"struct.ap_int_base<65, true>"* dereferenceable(16) %op) unnamed_addr #100003 comdat align 2 !fpga.function.pragma !100997 {
entry:
  %0 = bitcast %"struct.ap_int<65>"* %this to %"struct.ap_int_base<65, true>"*
  %1 = load %"struct.ap_int_base<65, true>", %"struct.ap_int_base<65, true>"* %op, align 16
  store %"struct.ap_int_base<65, true>" %1, %"struct.ap_int_base<65, true>"* %0, align 16
  ret void
}

; Function Attrs: alwaysinline nounwind
define linkonce_odr void @_ZN8ssdm_intILi65ELb1EEC2EDq65_i(%"struct.ssdm_int<65, true>"* %this, i65 %o) unnamed_addr #100003 comdat align 2 !dbg !100999 !fpga.function.pragma !101000 {
entry:
  call void @llvm.dbg.value(metadata %"struct.ssdm_int<65, true>"* %this, metadata !101003, metadata !DIExpression()), !dbg !101005
  call void @llvm.dbg.value(metadata i65 %o, metadata !101006, metadata !DIExpression()), !dbg !101007
  %V = getelementptr inbounds %"struct.ssdm_int<65, true>", %"struct.ssdm_int<65, true>"* %this, i32 0, i32 0, !dbg !101008
  store i65 %o, i65* %V, align 16, !dbg !101008
  ret void, !dbg !101009
}

; Function Attrs: alwaysinline nounwind
define linkonce_odr void @_ZN8ssdm_intILi32ELb0EEC2Ej(%"struct.ssdm_int<32, false>"* %this, i32 %o) unnamed_addr #100003 comdat align 2 !dbg !101010 !fpga.function.pragma !101011 {
entry:
  call void @llvm.dbg.value(metadata %"struct.ssdm_int<32, false>"* %this, metadata !101014, metadata !DIExpression()), !dbg !101016
  call void @llvm.dbg.value(metadata i32 %o, metadata !101017, metadata !DIExpression()), !dbg !101018
  %V = getelementptr inbounds %"struct.ssdm_int<32, false>", %"struct.ssdm_int<32, false>"* %this, i32 0, i32 0, !dbg !101019
  store i32 %o, i32* %V, align 4, !dbg !101019
  ret void, !dbg !101020
}

; Function Attrs: alwaysinline nounwind
define linkonce_odr void @_ZorILi34ELb1ELi32ELb0EEN11ap_int_baseIXT_EXT0_EE5RTypeIXT1_EXT2_EE5logicERKS1_RKS0_IXT1_EXT2_EE(%"struct.ap_int<34>"* noalias sret %agg.result, %"struct.ap_int_base<34, true>"* dereferenceable(8) %op, %"struct.ap_int_base<32, false>"* dereferenceable(4) %op2) #100003 comdat !fpga.function.pragma !100997 {
entry:
  %lhs = alloca %"struct.ap_int_base<34, true>", align 8
  %rhs = alloca %"struct.ap_int_base<34, true>", align 8
  %ret = alloca %"struct.ap_int_base<34, true>", align 8
  %0 = bitcast %"struct.ap_int_base<34, true>"* %lhs to i8*
  call void @llvm.lifetime.start.p0i8(i64 8, i8* %0) #100019
  %1 = load %"struct.ap_int_base<34, true>", %"struct.ap_int_base<34, true>"* %op, align 8
  store %"struct.ap_int_base<34, true>" %1, %"struct.ap_int_base<34, true>"* %lhs, align 8
  %2 = bitcast %"struct.ap_int_base<34, true>"* %rhs to i8*
  call void @llvm.lifetime.start.p0i8(i64 8, i8* %2) #100019
  call void @_ZN11ap_int_baseILi34ELb1EEC2ILi32ELb0EEERKS_IXT_EXT0_EE(%"struct.ap_int_base<34, true>"* %rhs, %"struct.ap_int_base<32, false>"* dereferenceable(4) %op2)
  %3 = bitcast %"struct.ap_int_base<34, true>"* %ret to i8*
  call void @llvm.lifetime.start.p0i8(i64 8, i8* %3) #100019
  call void @_ZN11ap_int_baseILi34ELb1EEC2Ei(%"struct.ap_int_base<34, true>"* %ret, i32 0)
  %4 = bitcast %"struct.ap_int_base<34, true>"* %lhs to %"struct.ssdm_int<34, true>"*
  %V = getelementptr inbounds %"struct.ssdm_int<34, true>", %"struct.ssdm_int<34, true>"* %4, i32 0, i32 0
  %5 = load i34, i34* %V, align 8
  %6 = bitcast %"struct.ap_int_base<34, true>"* %rhs to %"struct.ssdm_int<34, true>"*
  %V1 = getelementptr inbounds %"struct.ssdm_int<34, true>", %"struct.ssdm_int<34, true>"* %6, i32 0, i32 0
  %7 = load i34, i34* %V1, align 8
  %or = or i34 %5, %7
  %8 = bitcast %"struct.ap_int_base<34, true>"* %ret to %"struct.ssdm_int<34, true>"*
  %V2 = getelementptr inbounds %"struct.ssdm_int<34, true>", %"struct.ssdm_int<34, true>"* %8, i32 0, i32 0
  store i34 %or, i34* %V2, align 8
  call void @_ZN6ap_intILi34EEC2ILi34ELb1EEERK11ap_int_baseIXT_EXT0_EE(%"struct.ap_int<34>"* %agg.result, %"struct.ap_int_base<34, true>"* dereferenceable(8) %ret)
  %9 = bitcast %"struct.ap_int_base<34, true>"* %ret to i8*
  call void @llvm.lifetime.end.p0i8(i64 8, i8* %9) #100019
  %10 = bitcast %"struct.ap_int_base<34, true>"* %rhs to i8*
  call void @llvm.lifetime.end.p0i8(i64 8, i8* %10) #100019
  %11 = bitcast %"struct.ap_int_base<34, true>"* %lhs to i8*
  call void @llvm.lifetime.end.p0i8(i64 8, i8* %11) #100019
  ret void
}

; Function Attrs: alwaysinline nounwind
define linkonce_odr void @_ZN11ap_int_baseILi34ELb1EEC2ILi32ELb0EEERKS_IXT_EXT0_EE(%"struct.ap_int_base<34, true>"* %this, %"struct.ap_int_base<32, false>"* dereferenceable(4) %op) unnamed_addr #100003 comdat align 2 !fpga.function.pragma !100997 {
entry:
  %0 = bitcast %"struct.ap_int_base<34, true>"* %this to %"struct.ssdm_int<34, true>"*
  %1 = bitcast %"struct.ap_int_base<32, false>"* %op to %"struct.ssdm_int<32, false>"*
  %V = getelementptr inbounds %"struct.ssdm_int<32, false>", %"struct.ssdm_int<32, false>"* %1, i32 0, i32 0
  %2 = load i32, i32* %V, align 4
  %conv = zext i32 %2 to i34
  call void @_ZN8ssdm_intILi34ELb1EEC2EDq34_i(%"struct.ssdm_int<34, true>"* %0, i34 %conv)
  %3 = bitcast %"struct.ap_int_base<32, false>"* %op to %"struct.ssdm_int<32, false>"*
  %V2 = getelementptr inbounds %"struct.ssdm_int<32, false>", %"struct.ssdm_int<32, false>"* %3, i32 0, i32 0
  %4 = load i32, i32* %V2, align 4
  %conv3 = zext i32 %4 to i34
  %5 = bitcast %"struct.ap_int_base<34, true>"* %this to %"struct.ssdm_int<34, true>"*
  %V4 = getelementptr inbounds %"struct.ssdm_int<34, true>", %"struct.ssdm_int<34, true>"* %5, i32 0, i32 0
  store i34 %conv3, i34* %V4, align 8
  ret void
}

; Function Attrs: alwaysinline nounwind
define linkonce_odr void @_ZN11ap_int_baseILi34ELb1EEC2Ei(%"struct.ap_int_base<34, true>"* %this, i32 %op) unnamed_addr #100003 comdat align 2 !fpga.function.pragma !100997 {
entry:
  %0 = bitcast %"struct.ap_int_base<34, true>"* %this to %"struct.ssdm_int<34, true>"*
  %conv = sext i32 %op to i34
  call void @_ZN8ssdm_intILi34ELb1EEC2EDq34_i(%"struct.ssdm_int<34, true>"* %0, i34 %conv)
  %conv2 = sext i32 %op to i34
  %1 = bitcast %"struct.ap_int_base<34, true>"* %this to %"struct.ssdm_int<34, true>"*
  %V = getelementptr inbounds %"struct.ssdm_int<34, true>", %"struct.ssdm_int<34, true>"* %1, i32 0, i32 0
  store i34 %conv2, i34* %V, align 8
  ret void
}

; Function Attrs: alwaysinline nounwind
define linkonce_odr void @_ZN6ap_intILi34EEC2ILi34ELb1EEERK11ap_int_baseIXT_EXT0_EE(%"struct.ap_int<34>"* %this, %"struct.ap_int_base<34, true>"* dereferenceable(8) %op) unnamed_addr #100003 comdat align 2 !fpga.function.pragma !100997 {
entry:
  %0 = bitcast %"struct.ap_int<34>"* %this to %"struct.ap_int_base<34, true>"*
  %1 = load %"struct.ap_int_base<34, true>", %"struct.ap_int_base<34, true>"* %op, align 8
  store %"struct.ap_int_base<34, true>" %1, %"struct.ap_int_base<34, true>"* %0, align 8
  ret void
}

; Function Attrs: alwaysinline nounwind
define linkonce_odr void @_ZN8ssdm_intILi34ELb1EEC2EDq34_i(%"struct.ssdm_int<34, true>"* %this, i34 %o) unnamed_addr #100003 comdat align 2 !dbg !101021 !fpga.function.pragma !101022 {
entry:
  call void @llvm.dbg.value(metadata %"struct.ssdm_int<34, true>"* %this, metadata !101025, metadata !DIExpression()), !dbg !101027
  call void @llvm.dbg.value(metadata i34 %o, metadata !101028, metadata !DIExpression()), !dbg !101029
  %V = getelementptr inbounds %"struct.ssdm_int<34, true>", %"struct.ssdm_int<34, true>"* %this, i32 0, i32 0, !dbg !101030
  store i34 %o, i34* %V, align 8, !dbg !101030
  ret void, !dbg !101031
}

; Function Attrs: alwaysinline nounwind
define linkonce_odr void @_ZN11ap_int_baseILi32ELb1EEC2Ei(%"struct.ap_int_base<32, false>"* %this, i32 %op) unnamed_addr #100003 comdat align 2 !fpga.function.pragma !100997 {
entry:
  %0 = bitcast %"struct.ap_int_base<32, false>"* %this to %"struct.ssdm_int<32, false>"*
  call void @_ZN8ssdm_intILi32ELb1EEC2Ei(%"struct.ssdm_int<32, false>"* %0, i32 %op)
  %1 = bitcast %"struct.ap_int_base<32, false>"* %this to %"struct.ssdm_int<32, false>"*
  %V = getelementptr inbounds %"struct.ssdm_int<32, false>", %"struct.ssdm_int<32, false>"* %1, i32 0, i32 0
  store i32 %op, i32* %V, align 4
  ret void
}

; Function Attrs: alwaysinline nounwind
define linkonce_odr void @_ZanILi14ELb0ELi32ELb1EEN11ap_int_baseIXT_EXT0_EE5RTypeIXT1_EXT2_EE5logicERKS1_RKS0_IXT1_EXT2_EE(%"struct.ap_uint<32>"* noalias sret %agg.result, %"struct.ap_int_base<14, false>"* dereferenceable(2) %op, %"struct.ap_int_base<32, false>"* dereferenceable(4) %op2) #100003 comdat !fpga.function.pragma !100997 {
entry:
  %lhs = alloca %"struct.ap_int_base<32, false>", align 4
  %rhs = alloca %"struct.ap_int_base<32, false>", align 4
  %ret = alloca %"struct.ap_int_base<32, false>", align 4
  %0 = bitcast %"struct.ap_int_base<32, false>"* %lhs to i8*
  call void @llvm.lifetime.start.p0i8(i64 4, i8* %0) #100019
  call void @_ZN11ap_int_baseILi32ELb1EEC2ILi14ELb0EEERKS_IXT_EXT0_EE(%"struct.ap_int_base<32, false>"* %lhs, %"struct.ap_int_base<14, false>"* dereferenceable(2) %op)
  %1 = bitcast %"struct.ap_int_base<32, false>"* %rhs to i8*
  call void @llvm.lifetime.start.p0i8(i64 4, i8* %1) #100019
  %2 = load %"struct.ap_int_base<32, false>", %"struct.ap_int_base<32, false>"* %op2, align 4
  store %"struct.ap_int_base<32, false>" %2, %"struct.ap_int_base<32, false>"* %rhs, align 4
  %3 = bitcast %"struct.ap_int_base<32, false>"* %ret to i8*
  call void @llvm.lifetime.start.p0i8(i64 4, i8* %3) #100019
  call void @_ZN11ap_int_baseILi32ELb1EEC2Ei(%"struct.ap_int_base<32, false>"* %ret, i32 0)
  %4 = bitcast %"struct.ap_int_base<32, false>"* %lhs to %"struct.ssdm_int<32, false>"*
  %V = getelementptr inbounds %"struct.ssdm_int<32, false>", %"struct.ssdm_int<32, false>"* %4, i32 0, i32 0
  %5 = load i32, i32* %V, align 4
  %6 = bitcast %"struct.ap_int_base<32, false>"* %rhs to %"struct.ssdm_int<32, false>"*
  %V1 = getelementptr inbounds %"struct.ssdm_int<32, false>", %"struct.ssdm_int<32, false>"* %6, i32 0, i32 0
  %7 = load i32, i32* %V1, align 4
  %and = and i32 %5, %7
  %8 = bitcast %"struct.ap_int_base<32, false>"* %ret to %"struct.ssdm_int<32, false>"*
  %V2 = getelementptr inbounds %"struct.ssdm_int<32, false>", %"struct.ssdm_int<32, false>"* %8, i32 0, i32 0
  store i32 %and, i32* %V2, align 4
  call void @_ZN6ap_intILi32EEC2ILi32ELb1EEERK11ap_int_baseIXT_EXT0_EE(%"struct.ap_uint<32>"* %agg.result, %"struct.ap_int_base<32, false>"* dereferenceable(4) %ret)
  %9 = bitcast %"struct.ap_int_base<32, false>"* %ret to i8*
  call void @llvm.lifetime.end.p0i8(i64 4, i8* %9) #100019
  %10 = bitcast %"struct.ap_int_base<32, false>"* %rhs to i8*
  call void @llvm.lifetime.end.p0i8(i64 4, i8* %10) #100019
  %11 = bitcast %"struct.ap_int_base<32, false>"* %lhs to i8*
  call void @llvm.lifetime.end.p0i8(i64 4, i8* %11) #100019
  ret void
}

; Function Attrs: alwaysinline nounwind
define linkonce_odr void @_ZN11ap_int_baseILi32ELb1EEC2ILi14ELb0EEERKS_IXT_EXT0_EE(%"struct.ap_int_base<32, false>"* %this, %"struct.ap_int_base<14, false>"* dereferenceable(2) %op) unnamed_addr #100003 comdat align 2 !fpga.function.pragma !100997 {
entry:
  %0 = bitcast %"struct.ap_int_base<32, false>"* %this to %"struct.ssdm_int<32, false>"*
  %1 = bitcast %"struct.ap_int_base<14, false>"* %op to %"struct.ssdm_int<14, false>"*
  %V = getelementptr inbounds %"struct.ssdm_int<14, false>", %"struct.ssdm_int<14, false>"* %1, i32 0, i32 0
  %2 = load i14, i14* %V, align 2
  %conv = zext i14 %2 to i32
  call void @_ZN8ssdm_intILi32ELb1EEC2Ei(%"struct.ssdm_int<32, false>"* %0, i32 %conv)
  %3 = bitcast %"struct.ap_int_base<14, false>"* %op to %"struct.ssdm_int<14, false>"*
  %V2 = getelementptr inbounds %"struct.ssdm_int<14, false>", %"struct.ssdm_int<14, false>"* %3, i32 0, i32 0
  %4 = load i14, i14* %V2, align 2
  %conv3 = zext i14 %4 to i32
  %5 = bitcast %"struct.ap_int_base<32, false>"* %this to %"struct.ssdm_int<32, false>"*
  %V4 = getelementptr inbounds %"struct.ssdm_int<32, false>", %"struct.ssdm_int<32, false>"* %5, i32 0, i32 0
  store i32 %conv3, i32* %V4, align 4
  ret void
}

; Function Attrs: alwaysinline nounwind
define linkonce_odr void @_ZN6ap_intILi32EEC2ILi32ELb1EEERK11ap_int_baseIXT_EXT0_EE(%"struct.ap_uint<32>"* %this, %"struct.ap_int_base<32, false>"* dereferenceable(4) %op) unnamed_addr #100003 comdat align 2 !fpga.function.pragma !100997 {
entry:
  %0 = bitcast %"struct.ap_uint<32>"* %this to %"struct.ap_int_base<32, false>"*
  %1 = load %"struct.ap_int_base<32, false>", %"struct.ap_int_base<32, false>"* %op, align 4
  store %"struct.ap_int_base<32, false>" %1, %"struct.ap_int_base<32, false>"* %0, align 4
  ret void
}

; Function Attrs: alwaysinline nounwind
define linkonce_odr void @_ZN8ssdm_intILi32ELb1EEC2Ei(%"struct.ssdm_int<32, false>"* %this, i32 %o) unnamed_addr #100003 comdat align 2 !dbg !101032 !fpga.function.pragma !101033 {
entry:
  call void @llvm.dbg.value(metadata %"struct.ssdm_int<32, false>"* %this, metadata !101036, metadata !DIExpression()), !dbg !101038
  call void @llvm.dbg.value(metadata i32 %o, metadata !101039, metadata !DIExpression()), !dbg !101040
  %V = getelementptr inbounds %"struct.ssdm_int<32, false>", %"struct.ssdm_int<32, false>"* %this, i32 0, i32 0, !dbg !101041
  store i32 %o, i32* %V, align 4, !dbg !101041
  ret void, !dbg !101042
}

; Function Attrs: alwaysinline nounwind
define linkonce_odr void @_ZN11ap_int_baseILi33ELb0EEC2ILi33ELb1EEERKS_IXT_EXT0_EE(%"struct.ap_int_base<33, true>"* %this, %"struct.ap_int_base<33, true>"* dereferenceable(8) %op) unnamed_addr #100003 comdat align 2 !fpga.function.pragma !100997 {
entry:
  %0 = bitcast %"struct.ap_int_base<33, true>"* %this to %"struct.ssdm_int<33, true>"*
  %1 = bitcast %"struct.ap_int_base<33, true>"* %op to %"struct.ssdm_int<33, true>"*
  %V = getelementptr inbounds %"struct.ssdm_int<33, true>", %"struct.ssdm_int<33, true>"* %1, i32 0, i32 0
  %2 = load i33, i33* %V, align 8
  call void @_ZN8ssdm_intILi33ELb0EEC2EDq33_j(%"struct.ssdm_int<33, true>"* %0, i33 %2)
  %3 = bitcast %"struct.ap_int_base<33, true>"* %op to %"struct.ssdm_int<33, true>"*
  %V2 = getelementptr inbounds %"struct.ssdm_int<33, true>", %"struct.ssdm_int<33, true>"* %3, i32 0, i32 0
  %4 = load i33, i33* %V2, align 8
  %5 = bitcast %"struct.ap_int_base<33, true>"* %this to %"struct.ssdm_int<33, true>"*
  %V3 = getelementptr inbounds %"struct.ssdm_int<33, true>", %"struct.ssdm_int<33, true>"* %5, i32 0, i32 0
  store i33 %4, i33* %V3, align 8
  ret void
}

; Function Attrs: alwaysinline nounwind
define linkonce_odr void @_ZNK11ap_int_baseILi33ELb1EEngEv(%"struct.ap_int<34>"* noalias sret %agg.result, %"struct.ap_int_base<33, true>"* %this) #100003 comdat align 2 !fpga.function.pragma !100997 {
entry:
  %ref.tmp = alloca %"struct.ap_int_base<1, false>", align 1
  %0 = bitcast %"struct.ap_int_base<1, false>"* %ref.tmp to i8*
  call void @llvm.lifetime.start.p0i8(i64 1, i8* %0) #100019
  call void @_ZN11ap_int_baseILi1ELb0EEC2Ei(%"struct.ap_int_base<1, false>"* %ref.tmp, i32 0)
  call void @_ZmiILi1ELb0ELi33ELb1EEN11ap_int_baseIXT_EXT0_EE5RTypeIXT1_EXT2_EE5minusERKS1_RKS0_IXT1_EXT2_EE(%"struct.ap_int<34>"* sret %agg.result, %"struct.ap_int_base<1, false>"* dereferenceable(1) %ref.tmp, %"struct.ap_int_base<33, true>"* dereferenceable(8) %this)
  %1 = bitcast %"struct.ap_int_base<1, false>"* %ref.tmp to i8*
  call void @llvm.lifetime.end.p0i8(i64 1, i8* %1) #100019
  ret void
}

; Function Attrs: alwaysinline nounwind
define linkonce_odr dereferenceable(8) %"struct.ap_int_base<33, true>"* @_ZN11ap_int_baseILi33ELb0EEaSILi34ELb1EEERS0_RKS_IXT_EXT0_EE(%"struct.ap_int_base<33, true>"* %this, %"struct.ap_int_base<34, true>"* dereferenceable(8) %op2) #100003 comdat align 2 !fpga.function.pragma !100997 {
entry:
  %0 = bitcast %"struct.ap_int_base<34, true>"* %op2 to %"struct.ssdm_int<34, true>"*
  %V = getelementptr inbounds %"struct.ssdm_int<34, true>", %"struct.ssdm_int<34, true>"* %0, i32 0, i32 0
  %1 = load i34, i34* %V, align 8
  %conv = trunc i34 %1 to i33
  %2 = bitcast %"struct.ap_int_base<33, true>"* %this to %"struct.ssdm_int<33, true>"*
  %V2 = getelementptr inbounds %"struct.ssdm_int<33, true>", %"struct.ssdm_int<33, true>"* %2, i32 0, i32 0
  store i33 %conv, i33* %V2, align 8
  ret %"struct.ap_int_base<33, true>"* %this
}

; Function Attrs: alwaysinline nounwind
define linkonce_odr void @_ZNK11ap_int_baseILi34ELb1EErsILi33EEE6ap_intILi34EERKS_IXT_ELb0EE(%"struct.ap_int<34>"* noalias sret %agg.result, %"struct.ap_int_base<34, true>"* %this, %"struct.ap_int_base<33, true>"* dereferenceable(8) %op2) #100003 comdat align 2 !fpga.function.pragma !100997 {
entry:
  %r = alloca %"struct.ap_int_base<34, true>", align 8
  %0 = bitcast %"struct.ap_int_base<34, true>"* %r to i8*
  call void @llvm.lifetime.start.p0i8(i64 8, i8* %0) #100019
  call void @_ZN11ap_int_baseILi34ELb1EEC2Ei(%"struct.ap_int_base<34, true>"* %r, i32 0)
  %1 = bitcast %"struct.ap_int_base<34, true>"* %this to %"struct.ssdm_int<34, true>"*
  %V = getelementptr inbounds %"struct.ssdm_int<34, true>", %"struct.ssdm_int<34, true>"* %1, i32 0, i32 0
  %2 = load i34, i34* %V, align 8
  %call = call i32 @_ZNK11ap_int_baseILi33ELb0EE7to_uintEv(%"struct.ap_int_base<33, true>"* %op2)
  %sh_prom = zext i32 %call to i34
  %shr = ashr i34 %2, %sh_prom
  %3 = bitcast %"struct.ap_int_base<34, true>"* %r to %"struct.ssdm_int<34, true>"*
  %V2 = getelementptr inbounds %"struct.ssdm_int<34, true>", %"struct.ssdm_int<34, true>"* %3, i32 0, i32 0
  store i34 %shr, i34* %V2, align 8
  call void @_ZN6ap_intILi34EEC2ILi34ELb1EEERK11ap_int_baseIXT_EXT0_EE(%"struct.ap_int<34>"* %agg.result, %"struct.ap_int_base<34, true>"* dereferenceable(8) %r)
  %4 = bitcast %"struct.ap_int_base<34, true>"* %r to i8*
  call void @llvm.lifetime.end.p0i8(i64 8, i8* %4) #100019
  ret void
}

; Function Attrs: alwaysinline nounwind
define linkonce_odr void @_ZNK11ap_int_baseILi34ELb1EElsILi33EEE6ap_intILi34EERKS_IXT_ELb0EE(%"struct.ap_int<34>"* noalias sret %agg.result, %"struct.ap_int_base<34, true>"* %this, %"struct.ap_int_base<33, true>"* dereferenceable(8) %op2) #100003 comdat align 2 !fpga.function.pragma !100997 {
entry:
  %r = alloca %"struct.ap_int_base<34, true>", align 8
  %0 = bitcast %"struct.ap_int_base<34, true>"* %r to i8*
  call void @llvm.lifetime.start.p0i8(i64 8, i8* %0) #100019
  call void @_ZN11ap_int_baseILi34ELb1EEC2Ei(%"struct.ap_int_base<34, true>"* %r, i32 0)
  %1 = bitcast %"struct.ap_int_base<34, true>"* %this to %"struct.ssdm_int<34, true>"*
  %V = getelementptr inbounds %"struct.ssdm_int<34, true>", %"struct.ssdm_int<34, true>"* %1, i32 0, i32 0
  %2 = load i34, i34* %V, align 8
  %call = call i32 @_ZNK11ap_int_baseILi33ELb0EE7to_uintEv(%"struct.ap_int_base<33, true>"* %op2)
  %sh_prom = zext i32 %call to i34
  %shl = shl i34 %2, %sh_prom
  %3 = bitcast %"struct.ap_int_base<34, true>"* %r to %"struct.ssdm_int<34, true>"*
  %V2 = getelementptr inbounds %"struct.ssdm_int<34, true>", %"struct.ssdm_int<34, true>"* %3, i32 0, i32 0
  store i34 %shl, i34* %V2, align 8
  call void @_ZN6ap_intILi34EEC2ILi34ELb1EEERK11ap_int_baseIXT_EXT0_EE(%"struct.ap_int<34>"* %agg.result, %"struct.ap_int_base<34, true>"* dereferenceable(8) %r)
  %4 = bitcast %"struct.ap_int_base<34, true>"* %r to i8*
  call void @llvm.lifetime.end.p0i8(i64 8, i8* %4) #100019
  ret void
}

; Function Attrs: alwaysinline nounwind
define linkonce_odr i32 @_ZNK11ap_int_baseILi33ELb0EE7to_uintEv(%"struct.ap_int_base<33, true>"* %this) #100005 comdat align 2 !fpga.function.pragma !100997 {
entry:
  %0 = bitcast %"struct.ap_int_base<33, true>"* %this to %"struct.ssdm_int<33, true>"*
  %V = getelementptr inbounds %"struct.ssdm_int<33, true>", %"struct.ssdm_int<33, true>"* %0, i32 0, i32 0
  %1 = load i33, i33* %V, align 8
  %conv = trunc i33 %1 to i32
  ret i32 %conv
}

; Function Attrs: alwaysinline nounwind
define linkonce_odr void @_ZN11ap_int_baseILi1ELb0EEC2Ei(%"struct.ap_int_base<1, false>"* %this, i32 %op) unnamed_addr #100003 comdat align 2 !fpga.function.pragma !100997 {
entry:
  %0 = bitcast %"struct.ap_int_base<1, false>"* %this to %"struct.ssdm_int<1, false>"*
  %conv = trunc i32 %op to i1
  call void @_ZN8ssdm_intILi1ELb0EEC2EDq1_j(%"struct.ssdm_int<1, false>"* %0, i1 %conv)
  %conv2 = trunc i32 %op to i1
  %1 = bitcast %"struct.ap_int_base<1, false>"* %this to %"struct.ssdm_int<1, false>"*
  %V = getelementptr inbounds %"struct.ssdm_int<1, false>", %"struct.ssdm_int<1, false>"* %1, i32 0, i32 0
  store i1 %conv2, i1* %V, align 1
  ret void
}

; Function Attrs: alwaysinline nounwind
define linkonce_odr void @_ZmiILi1ELb0ELi33ELb1EEN11ap_int_baseIXT_EXT0_EE5RTypeIXT1_EXT2_EE5minusERKS1_RKS0_IXT1_EXT2_EE(%"struct.ap_int<34>"* noalias sret %agg.result, %"struct.ap_int_base<1, false>"* dereferenceable(1) %op, %"struct.ap_int_base<33, true>"* dereferenceable(8) %op2) #100003 comdat !fpga.function.pragma !100997 {
entry:
  %lhs = alloca %"struct.ap_int_base<34, true>", align 8
  %rhs = alloca %"struct.ap_int_base<34, true>", align 8
  %ret = alloca %"struct.ap_int_base<34, true>", align 8
  %0 = bitcast %"struct.ap_int_base<34, true>"* %lhs to i8*
  call void @llvm.lifetime.start.p0i8(i64 8, i8* %0) #100019
  call void @_ZN11ap_int_baseILi34ELb1EEC2ILi1ELb0EEERKS_IXT_EXT0_EE(%"struct.ap_int_base<34, true>"* %lhs, %"struct.ap_int_base<1, false>"* dereferenceable(1) %op)
  %1 = bitcast %"struct.ap_int_base<34, true>"* %rhs to i8*
  call void @llvm.lifetime.start.p0i8(i64 8, i8* %1) #100019
  call void @_ZN11ap_int_baseILi34ELb1EEC2ILi33ELb1EEERKS_IXT_EXT0_EE(%"struct.ap_int_base<34, true>"* %rhs, %"struct.ap_int_base<33, true>"* dereferenceable(8) %op2)
  %2 = bitcast %"struct.ap_int_base<34, true>"* %ret to i8*
  call void @llvm.lifetime.start.p0i8(i64 8, i8* %2) #100019
  call void @_ZN11ap_int_baseILi34ELb1EEC2Ei(%"struct.ap_int_base<34, true>"* %ret, i32 0)
  %3 = bitcast %"struct.ap_int_base<34, true>"* %lhs to %"struct.ssdm_int<34, true>"*
  %V = getelementptr inbounds %"struct.ssdm_int<34, true>", %"struct.ssdm_int<34, true>"* %3, i32 0, i32 0
  %4 = load i34, i34* %V, align 8
  %5 = bitcast %"struct.ap_int_base<34, true>"* %rhs to %"struct.ssdm_int<34, true>"*
  %V1 = getelementptr inbounds %"struct.ssdm_int<34, true>", %"struct.ssdm_int<34, true>"* %5, i32 0, i32 0
  %6 = load i34, i34* %V1, align 8
  %sub = sub nsw i34 %4, %6
  %7 = bitcast %"struct.ap_int_base<34, true>"* %ret to %"struct.ssdm_int<34, true>"*
  %V2 = getelementptr inbounds %"struct.ssdm_int<34, true>", %"struct.ssdm_int<34, true>"* %7, i32 0, i32 0
  store i34 %sub, i34* %V2, align 8
  call void @_ZN6ap_intILi34EEC2ILi34ELb1EEERK11ap_int_baseIXT_EXT0_EE(%"struct.ap_int<34>"* %agg.result, %"struct.ap_int_base<34, true>"* dereferenceable(8) %ret)
  %8 = bitcast %"struct.ap_int_base<34, true>"* %ret to i8*
  call void @llvm.lifetime.end.p0i8(i64 8, i8* %8) #100019
  %9 = bitcast %"struct.ap_int_base<34, true>"* %rhs to i8*
  call void @llvm.lifetime.end.p0i8(i64 8, i8* %9) #100019
  %10 = bitcast %"struct.ap_int_base<34, true>"* %lhs to i8*
  call void @llvm.lifetime.end.p0i8(i64 8, i8* %10) #100019
  ret void
}

; Function Attrs: alwaysinline nounwind
define linkonce_odr void @_ZN11ap_int_baseILi34ELb1EEC2ILi1ELb0EEERKS_IXT_EXT0_EE(%"struct.ap_int_base<34, true>"* %this, %"struct.ap_int_base<1, false>"* dereferenceable(1) %op) unnamed_addr #100003 comdat align 2 !fpga.function.pragma !100997 {
entry:
  %0 = bitcast %"struct.ap_int_base<34, true>"* %this to %"struct.ssdm_int<34, true>"*
  %1 = bitcast %"struct.ap_int_base<1, false>"* %op to %"struct.ssdm_int<1, false>"*
  %V = getelementptr inbounds %"struct.ssdm_int<1, false>", %"struct.ssdm_int<1, false>"* %1, i32 0, i32 0
  %2 = load i1, i1* %V, align 1
  %conv = zext i1 %2 to i34
  call void @_ZN8ssdm_intILi34ELb1EEC2EDq34_i(%"struct.ssdm_int<34, true>"* %0, i34 %conv)
  %3 = bitcast %"struct.ap_int_base<1, false>"* %op to %"struct.ssdm_int<1, false>"*
  %V2 = getelementptr inbounds %"struct.ssdm_int<1, false>", %"struct.ssdm_int<1, false>"* %3, i32 0, i32 0
  %4 = load i1, i1* %V2, align 1
  %conv3 = zext i1 %4 to i34
  %5 = bitcast %"struct.ap_int_base<34, true>"* %this to %"struct.ssdm_int<34, true>"*
  %V4 = getelementptr inbounds %"struct.ssdm_int<34, true>", %"struct.ssdm_int<34, true>"* %5, i32 0, i32 0
  store i34 %conv3, i34* %V4, align 8
  ret void
}

; Function Attrs: alwaysinline nounwind
define linkonce_odr void @_ZN11ap_int_baseILi34ELb1EEC2ILi33ELb1EEERKS_IXT_EXT0_EE(%"struct.ap_int_base<34, true>"* %this, %"struct.ap_int_base<33, true>"* dereferenceable(8) %op) unnamed_addr #100003 comdat align 2 !fpga.function.pragma !100997 {
entry:
  %0 = bitcast %"struct.ap_int_base<34, true>"* %this to %"struct.ssdm_int<34, true>"*
  %1 = bitcast %"struct.ap_int_base<33, true>"* %op to %"struct.ssdm_int<33, true>"*
  %V = getelementptr inbounds %"struct.ssdm_int<33, true>", %"struct.ssdm_int<33, true>"* %1, i32 0, i32 0
  %2 = load i33, i33* %V, align 8
  %conv = sext i33 %2 to i34
  call void @_ZN8ssdm_intILi34ELb1EEC2EDq34_i(%"struct.ssdm_int<34, true>"* %0, i34 %conv)
  %3 = bitcast %"struct.ap_int_base<33, true>"* %op to %"struct.ssdm_int<33, true>"*
  %V2 = getelementptr inbounds %"struct.ssdm_int<33, true>", %"struct.ssdm_int<33, true>"* %3, i32 0, i32 0
  %4 = load i33, i33* %V2, align 8
  %conv3 = sext i33 %4 to i34
  %5 = bitcast %"struct.ap_int_base<34, true>"* %this to %"struct.ssdm_int<34, true>"*
  %V4 = getelementptr inbounds %"struct.ssdm_int<34, true>", %"struct.ssdm_int<34, true>"* %5, i32 0, i32 0
  store i34 %conv3, i34* %V4, align 8
  ret void
}

; Function Attrs: alwaysinline nounwind
define linkonce_odr void @_ZN8ssdm_intILi1ELb0EEC2EDq1_j(%"struct.ssdm_int<1, false>"* %this, i1 %o) unnamed_addr #100003 comdat align 2 !dbg !101043 !fpga.function.pragma !101044 {
entry:
  call void @llvm.dbg.value(metadata %"struct.ssdm_int<1, false>"* %this, metadata !101047, metadata !DIExpression()), !dbg !101049
  call void @llvm.dbg.value(metadata i1 %o, metadata !101050, metadata !DIExpression()), !dbg !101051
  %V = getelementptr inbounds %"struct.ssdm_int<1, false>", %"struct.ssdm_int<1, false>"* %this, i32 0, i32 0, !dbg !101052
  store i1 %o, i1* %V, align 1, !dbg !101052
  ret void, !dbg !101053
}

; Function Attrs: alwaysinline nounwind
define linkonce_odr void @_ZN8ssdm_intILi33ELb0EEC2EDq33_j(%"struct.ssdm_int<33, true>"* %this, i33 %o) unnamed_addr #100003 comdat align 2 !dbg !101054 !fpga.function.pragma !101067 {
entry:
  call void @llvm.dbg.value(metadata %"struct.ssdm_int<33, true>"* %this, metadata !101070, metadata !DIExpression()), !dbg !101072
  call void @llvm.dbg.value(metadata i33 %o, metadata !101073, metadata !DIExpression()), !dbg !101074
  %V = getelementptr inbounds %"struct.ssdm_int<33, true>", %"struct.ssdm_int<33, true>"* %this, i32 0, i32 0, !dbg !101075
  store i33 %o, i33* %V, align 8, !dbg !101075
  ret void, !dbg !101076
}

; Function Attrs: alwaysinline nounwind
define linkonce_odr void @_ZplILi32ELb0ELi2ELb1EEN11ap_int_baseIXT_EXT0_EE5RTypeIXT1_EXT2_EE4plusERKS1_RKS0_IXT1_EXT2_EE(%"struct.ap_int<34>"* noalias sret %agg.result, %"struct.ap_int_base<32, false>"* dereferenceable(4) %op, %"struct.ap_int_base<2, false>"* dereferenceable(1) %op2) #100003 comdat !fpga.function.pragma !100997 {
entry:
  %lhs = alloca %"struct.ap_int_base<34, true>", align 8
  %rhs = alloca %"struct.ap_int_base<34, true>", align 8
  %ret = alloca %"struct.ap_int_base<34, true>", align 8
  %0 = bitcast %"struct.ap_int_base<34, true>"* %lhs to i8*
  call void @llvm.lifetime.start.p0i8(i64 8, i8* %0) #100019
  call void @_ZN11ap_int_baseILi34ELb1EEC2ILi32ELb0EEERKS_IXT_EXT0_EE(%"struct.ap_int_base<34, true>"* %lhs, %"struct.ap_int_base<32, false>"* dereferenceable(4) %op)
  %1 = bitcast %"struct.ap_int_base<34, true>"* %rhs to i8*
  call void @llvm.lifetime.start.p0i8(i64 8, i8* %1) #100019
  call void @_ZN11ap_int_baseILi34ELb1EEC2ILi2ELb1EEERKS_IXT_EXT0_EE(%"struct.ap_int_base<34, true>"* %rhs, %"struct.ap_int_base<2, false>"* dereferenceable(1) %op2)
  %2 = bitcast %"struct.ap_int_base<34, true>"* %ret to i8*
  call void @llvm.lifetime.start.p0i8(i64 8, i8* %2) #100019
  call void @_ZN11ap_int_baseILi34ELb1EEC2Ei(%"struct.ap_int_base<34, true>"* %ret, i32 0)
  %3 = bitcast %"struct.ap_int_base<34, true>"* %lhs to %"struct.ssdm_int<34, true>"*
  %V = getelementptr inbounds %"struct.ssdm_int<34, true>", %"struct.ssdm_int<34, true>"* %3, i32 0, i32 0
  %4 = load i34, i34* %V, align 8
  %5 = bitcast %"struct.ap_int_base<34, true>"* %rhs to %"struct.ssdm_int<34, true>"*
  %V1 = getelementptr inbounds %"struct.ssdm_int<34, true>", %"struct.ssdm_int<34, true>"* %5, i32 0, i32 0
  %6 = load i34, i34* %V1, align 8
  %add = add nsw i34 %4, %6
  %7 = bitcast %"struct.ap_int_base<34, true>"* %ret to %"struct.ssdm_int<34, true>"*
  %V2 = getelementptr inbounds %"struct.ssdm_int<34, true>", %"struct.ssdm_int<34, true>"* %7, i32 0, i32 0
  store i34 %add, i34* %V2, align 8
  call void @_ZN6ap_intILi34EEC2ILi34ELb1EEERK11ap_int_baseIXT_EXT0_EE(%"struct.ap_int<34>"* %agg.result, %"struct.ap_int_base<34, true>"* dereferenceable(8) %ret)
  %8 = bitcast %"struct.ap_int_base<34, true>"* %ret to i8*
  call void @llvm.lifetime.end.p0i8(i64 8, i8* %8) #100019
  %9 = bitcast %"struct.ap_int_base<34, true>"* %rhs to i8*
  call void @llvm.lifetime.end.p0i8(i64 8, i8* %9) #100019
  %10 = bitcast %"struct.ap_int_base<34, true>"* %lhs to i8*
  call void @llvm.lifetime.end.p0i8(i64 8, i8* %10) #100019
  ret void
}

; Function Attrs: alwaysinline nounwind
define linkonce_odr void @_ZN11ap_int_baseILi34ELb1EEC2ILi2ELb1EEERKS_IXT_EXT0_EE(%"struct.ap_int_base<34, true>"* %this, %"struct.ap_int_base<2, false>"* dereferenceable(1) %op) unnamed_addr #100003 comdat align 2 !fpga.function.pragma !100997 {
entry:
  %0 = bitcast %"struct.ap_int_base<34, true>"* %this to %"struct.ssdm_int<34, true>"*
  %1 = bitcast %"struct.ap_int_base<2, false>"* %op to %"struct.ssdm_int<2, false>"*
  %V = getelementptr inbounds %"struct.ssdm_int<2, false>", %"struct.ssdm_int<2, false>"* %1, i32 0, i32 0
  %2 = load i2, i2* %V, align 1
  %conv = sext i2 %2 to i34
  call void @_ZN8ssdm_intILi34ELb1EEC2EDq34_i(%"struct.ssdm_int<34, true>"* %0, i34 %conv)
  %3 = bitcast %"struct.ap_int_base<2, false>"* %op to %"struct.ssdm_int<2, false>"*
  %V2 = getelementptr inbounds %"struct.ssdm_int<2, false>", %"struct.ssdm_int<2, false>"* %3, i32 0, i32 0
  %4 = load i2, i2* %V2, align 1
  %conv3 = sext i2 %4 to i34
  %5 = bitcast %"struct.ap_int_base<34, true>"* %this to %"struct.ssdm_int<34, true>"*
  %V4 = getelementptr inbounds %"struct.ssdm_int<34, true>", %"struct.ssdm_int<34, true>"* %5, i32 0, i32 0
  store i34 %conv3, i34* %V4, align 8
  ret void
}

; Function Attrs: alwaysinline nounwind
define linkonce_odr void @_ZN11ap_int_baseILi2ELb1EEC2Ei(%"struct.ap_int_base<2, false>"* %this, i32 %op) unnamed_addr #100003 comdat align 2 !fpga.function.pragma !100997 {
entry:
  %0 = bitcast %"struct.ap_int_base<2, false>"* %this to %"struct.ssdm_int<2, false>"*
  %conv = trunc i32 %op to i2
  call void @_ZN8ssdm_intILi2ELb1EEC2EDq2_i(%"struct.ssdm_int<2, false>"* %0, i2 %conv)
  %conv2 = trunc i32 %op to i2
  %1 = bitcast %"struct.ap_int_base<2, false>"* %this to %"struct.ssdm_int<2, false>"*
  %V = getelementptr inbounds %"struct.ssdm_int<2, false>", %"struct.ssdm_int<2, false>"* %1, i32 0, i32 0
  store i2 %conv2, i2* %V, align 1
  ret void
}

; Function Attrs: alwaysinline nounwind
define linkonce_odr void @_ZN11ap_int_baseILi2ELb1EE18checkOverflowBaseCIiEEvT_(%"struct.ap_int_base<2, false>"* %this, i32 %val) #100006 comdat align 2 !fpga.function.pragma !100997 {
entry:
  ret void
}

; Function Attrs: alwaysinline nounwind
define linkonce_odr void @_ZN8ssdm_intILi2ELb1EEC2EDq2_i(%"struct.ssdm_int<2, false>"* %this, i2 %o) unnamed_addr #100003 comdat align 2 !dbg !101077 !fpga.function.pragma !101078 {
entry:
  call void @llvm.dbg.value(metadata %"struct.ssdm_int<2, false>"* %this, metadata !101081, metadata !DIExpression()), !dbg !101083
  call void @llvm.dbg.value(metadata i2 %o, metadata !101084, metadata !DIExpression()), !dbg !101085
  %V = getelementptr inbounds %"struct.ssdm_int<2, false>", %"struct.ssdm_int<2, false>"* %this, i32 0, i32 0, !dbg !101086
  store i2 %o, i2* %V, align 1, !dbg !101086
  ret void, !dbg !101087
}

; Function Attrs: alwaysinline nounwind
define linkonce_odr void @_ZN11ap_int_baseILi3ELb0EEC2ILi33ELb1EEERKS_IXT_EXT0_EE(%"struct.ap_int_base<3, false>"* %this, %"struct.ap_int_base<33, true>"* dereferenceable(8) %op) unnamed_addr #100003 comdat align 2 !fpga.function.pragma !100997 {
entry:
  %0 = bitcast %"struct.ap_int_base<3, false>"* %this to %"struct.ssdm_int<3, false>"*
  %1 = bitcast %"struct.ap_int_base<33, true>"* %op to %"struct.ssdm_int<33, true>"*
  %V = getelementptr inbounds %"struct.ssdm_int<33, true>", %"struct.ssdm_int<33, true>"* %1, i32 0, i32 0
  %2 = load i33, i33* %V, align 8
  %conv = trunc i33 %2 to i3
  call void @_ZN8ssdm_intILi3ELb0EEC2EDq3_j(%"struct.ssdm_int<3, false>"* %0, i3 %conv)
  %3 = bitcast %"struct.ap_int_base<33, true>"* %op to %"struct.ssdm_int<33, true>"*
  %V2 = getelementptr inbounds %"struct.ssdm_int<33, true>", %"struct.ssdm_int<33, true>"* %3, i32 0, i32 0
  %4 = load i33, i33* %V2, align 8
  %conv3 = trunc i33 %4 to i3
  %5 = bitcast %"struct.ap_int_base<3, false>"* %this to %"struct.ssdm_int<3, false>"*
  %V4 = getelementptr inbounds %"struct.ssdm_int<3, false>", %"struct.ssdm_int<3, false>"* %5, i32 0, i32 0
  store i3 %conv3, i3* %V4, align 1
  ret void
}

; Function Attrs: alwaysinline nounwind
define linkonce_odr zeroext i1 @_ZNK11ap_int_baseILi33ELb1EE17checkOverflowCsimEibb(%"struct.ap_int_base<33, true>"* %this, i32 %_ap_w2, i1 zeroext %_ap_s2, i1 zeroext %print) #100007 comdat align 2 !fpga.function.pragma !100997 {
entry:
  ret i1 false
}

; Function Attrs: alwaysinline nounwind
define linkonce_odr void @_ZN8ssdm_intILi3ELb0EEC2EDq3_j(%"struct.ssdm_int<3, false>"* %this, i3 %o) unnamed_addr #100003 comdat align 2 !dbg !101088 !fpga.function.pragma !101089 {
entry:
  call void @llvm.dbg.value(metadata %"struct.ssdm_int<3, false>"* %this, metadata !101092, metadata !DIExpression()), !dbg !101094
  call void @llvm.dbg.value(metadata i3 %o, metadata !101095, metadata !DIExpression()), !dbg !101096
  %V = getelementptr inbounds %"struct.ssdm_int<3, false>", %"struct.ssdm_int<3, false>"* %this, i32 0, i32 0, !dbg !101097
  store i3 %o, i3* %V, align 1, !dbg !101097
  ret void, !dbg !101098
}

; Function Attrs: alwaysinline nounwind
define linkonce_odr void @_ZmiILi3ELb0ELi32ELb1EEN11ap_int_baseIXT_EXT0_EE5RTypeIXT1_EXT2_EE5minusERKS1_RKS0_IXT1_EXT2_EE(%"struct.ap_int<33>"* noalias sret %agg.result, %"struct.ap_int_base<3, false>"* dereferenceable(1) %op, %"struct.ap_int_base<32, false>"* dereferenceable(4) %op2) #100003 comdat !fpga.function.pragma !100997 {
entry:
  %lhs = alloca %"struct.ap_int_base<33, true>", align 8
  %rhs = alloca %"struct.ap_int_base<33, true>", align 8
  %ret = alloca %"struct.ap_int_base<33, true>", align 8
  %0 = bitcast %"struct.ap_int_base<33, true>"* %lhs to i8*
  call void @llvm.lifetime.start.p0i8(i64 8, i8* %0) #100019
  call void @_ZN11ap_int_baseILi33ELb1EEC2ILi3ELb0EEERKS_IXT_EXT0_EE(%"struct.ap_int_base<33, true>"* %lhs, %"struct.ap_int_base<3, false>"* dereferenceable(1) %op)
  %1 = bitcast %"struct.ap_int_base<33, true>"* %rhs to i8*
  call void @llvm.lifetime.start.p0i8(i64 8, i8* %1) #100019
  call void @_ZN11ap_int_baseILi33ELb1EEC2ILi32ELb1EEERKS_IXT_EXT0_EE(%"struct.ap_int_base<33, true>"* %rhs, %"struct.ap_int_base<32, false>"* dereferenceable(4) %op2)
  %2 = bitcast %"struct.ap_int_base<33, true>"* %ret to i8*
  call void @llvm.lifetime.start.p0i8(i64 8, i8* %2) #100019
  call void @_ZN11ap_int_baseILi33ELb1EEC2Ei(%"struct.ap_int_base<33, true>"* %ret, i32 0)
  %3 = bitcast %"struct.ap_int_base<33, true>"* %lhs to %"struct.ssdm_int<33, true>"*
  %V = getelementptr inbounds %"struct.ssdm_int<33, true>", %"struct.ssdm_int<33, true>"* %3, i32 0, i32 0
  %4 = load i33, i33* %V, align 8
  %5 = bitcast %"struct.ap_int_base<33, true>"* %rhs to %"struct.ssdm_int<33, true>"*
  %V1 = getelementptr inbounds %"struct.ssdm_int<33, true>", %"struct.ssdm_int<33, true>"* %5, i32 0, i32 0
  %6 = load i33, i33* %V1, align 8
  %sub = sub nsw i33 %4, %6
  %7 = bitcast %"struct.ap_int_base<33, true>"* %ret to %"struct.ssdm_int<33, true>"*
  %V2 = getelementptr inbounds %"struct.ssdm_int<33, true>", %"struct.ssdm_int<33, true>"* %7, i32 0, i32 0
  store i33 %sub, i33* %V2, align 8
  call void @_ZN6ap_intILi33EEC2ILi33ELb1EEERK11ap_int_baseIXT_EXT0_EE(%"struct.ap_int<33>"* %agg.result, %"struct.ap_int_base<33, true>"* dereferenceable(8) %ret)
  %8 = bitcast %"struct.ap_int_base<33, true>"* %ret to i8*
  call void @llvm.lifetime.end.p0i8(i64 8, i8* %8) #100019
  %9 = bitcast %"struct.ap_int_base<33, true>"* %rhs to i8*
  call void @llvm.lifetime.end.p0i8(i64 8, i8* %9) #100019
  %10 = bitcast %"struct.ap_int_base<33, true>"* %lhs to i8*
  call void @llvm.lifetime.end.p0i8(i64 8, i8* %10) #100019
  ret void
}

; Function Attrs: alwaysinline nounwind
define linkonce_odr void @_ZN11ap_int_baseILi33ELb1EEC2ILi3ELb0EEERKS_IXT_EXT0_EE(%"struct.ap_int_base<33, true>"* %this, %"struct.ap_int_base<3, false>"* dereferenceable(1) %op) unnamed_addr #100003 comdat align 2 !fpga.function.pragma !100997 {
entry:
  %0 = bitcast %"struct.ap_int_base<33, true>"* %this to %"struct.ssdm_int<33, true>"*
  %1 = bitcast %"struct.ap_int_base<3, false>"* %op to %"struct.ssdm_int<3, false>"*
  %V = getelementptr inbounds %"struct.ssdm_int<3, false>", %"struct.ssdm_int<3, false>"* %1, i32 0, i32 0
  %2 = load i3, i3* %V, align 1
  %conv = zext i3 %2 to i33
  call void @_ZN8ssdm_intILi33ELb1EEC2EDq33_i(%"struct.ssdm_int<33, true>"* %0, i33 %conv)
  %3 = bitcast %"struct.ap_int_base<3, false>"* %op to %"struct.ssdm_int<3, false>"*
  %V2 = getelementptr inbounds %"struct.ssdm_int<3, false>", %"struct.ssdm_int<3, false>"* %3, i32 0, i32 0
  %4 = load i3, i3* %V2, align 1
  %conv3 = zext i3 %4 to i33
  %5 = bitcast %"struct.ap_int_base<33, true>"* %this to %"struct.ssdm_int<33, true>"*
  %V4 = getelementptr inbounds %"struct.ssdm_int<33, true>", %"struct.ssdm_int<33, true>"* %5, i32 0, i32 0
  store i33 %conv3, i33* %V4, align 8
  ret void
}

; Function Attrs: alwaysinline nounwind
define linkonce_odr void @_ZN11ap_int_baseILi33ELb1EEC2ILi32ELb1EEERKS_IXT_EXT0_EE(%"struct.ap_int_base<33, true>"* %this, %"struct.ap_int_base<32, false>"* dereferenceable(4) %op) unnamed_addr #100003 comdat align 2 !fpga.function.pragma !100997 {
entry:
  %0 = bitcast %"struct.ap_int_base<33, true>"* %this to %"struct.ssdm_int<33, true>"*
  %1 = bitcast %"struct.ap_int_base<32, false>"* %op to %"struct.ssdm_int<32, false>"*
  %V = getelementptr inbounds %"struct.ssdm_int<32, false>", %"struct.ssdm_int<32, false>"* %1, i32 0, i32 0
  %2 = load i32, i32* %V, align 4
  %conv = sext i32 %2 to i33
  call void @_ZN8ssdm_intILi33ELb1EEC2EDq33_i(%"struct.ssdm_int<33, true>"* %0, i33 %conv)
  %3 = bitcast %"struct.ap_int_base<32, false>"* %op to %"struct.ssdm_int<32, false>"*
  %V2 = getelementptr inbounds %"struct.ssdm_int<32, false>", %"struct.ssdm_int<32, false>"* %3, i32 0, i32 0
  %4 = load i32, i32* %V2, align 4
  %conv3 = sext i32 %4 to i33
  %5 = bitcast %"struct.ap_int_base<33, true>"* %this to %"struct.ssdm_int<33, true>"*
  %V4 = getelementptr inbounds %"struct.ssdm_int<33, true>", %"struct.ssdm_int<33, true>"* %5, i32 0, i32 0
  store i33 %conv3, i33* %V4, align 8
  ret void
}

; Function Attrs: alwaysinline nounwind
define linkonce_odr void @_ZN11ap_int_baseILi33ELb1EEC2Ei(%"struct.ap_int_base<33, true>"* %this, i32 %op) unnamed_addr #100003 comdat align 2 !fpga.function.pragma !100997 {
entry:
  %0 = bitcast %"struct.ap_int_base<33, true>"* %this to %"struct.ssdm_int<33, true>"*
  %conv = sext i32 %op to i33
  call void @_ZN8ssdm_intILi33ELb1EEC2EDq33_i(%"struct.ssdm_int<33, true>"* %0, i33 %conv)
  %conv2 = sext i32 %op to i33
  %1 = bitcast %"struct.ap_int_base<33, true>"* %this to %"struct.ssdm_int<33, true>"*
  %V = getelementptr inbounds %"struct.ssdm_int<33, true>", %"struct.ssdm_int<33, true>"* %1, i32 0, i32 0
  store i33 %conv2, i33* %V, align 8
  ret void
}

; Function Attrs: alwaysinline nounwind
define linkonce_odr void @_ZN6ap_intILi33EEC2ILi33ELb1EEERK11ap_int_baseIXT_EXT0_EE(%"struct.ap_int<33>"* %this, %"struct.ap_int_base<33, true>"* dereferenceable(8) %op) unnamed_addr #100003 comdat align 2 !fpga.function.pragma !100997 {
entry:
  %0 = bitcast %"struct.ap_int<33>"* %this to %"struct.ap_int_base<33, true>"*
  %1 = load %"struct.ap_int_base<33, true>", %"struct.ap_int_base<33, true>"* %op, align 8
  store %"struct.ap_int_base<33, true>" %1, %"struct.ap_int_base<33, true>"* %0, align 8
  ret void
}

; Function Attrs: alwaysinline nounwind
define linkonce_odr void @_ZN8ssdm_intILi33ELb1EEC2EDq33_i(%"struct.ssdm_int<33, true>"* %this, i33 %o) unnamed_addr #100003 comdat align 2 !dbg !101099 !fpga.function.pragma !101100 {
entry:
  call void @llvm.dbg.value(metadata %"struct.ssdm_int<33, true>"* %this, metadata !101103, metadata !DIExpression()), !dbg !101105
  call void @llvm.dbg.value(metadata i33 %o, metadata !101106, metadata !DIExpression()), !dbg !101107
  %V = getelementptr inbounds %"struct.ssdm_int<33, true>", %"struct.ssdm_int<33, true>"* %this, i32 0, i32 0, !dbg !101108
  store i33 %o, i33* %V, align 8, !dbg !101108
  ret void, !dbg !101109
}

; Function Attrs: alwaysinline nounwind
define linkonce_odr void @_ZN11ap_int_baseILi3ELb0EEC2ILi14ELb0EEERK12ap_range_refIXT_EXT0_EE(%"struct.ap_int_base<3, false>"* %this, %"struct.ap_range_ref<14, false>"* dereferenceable(16) %ref) unnamed_addr #100003 comdat align 2 !fpga.function.pragma !100997 {
entry:
  %ref.tmp = alloca %"struct.ap_int_base<14, false>", align 2
  %0 = bitcast %"struct.ap_int_base<3, false>"* %this to %"struct.ssdm_int<3, false>"*
  call void @_ZN8ssdm_intILi3ELb0EEC2Ev(%"struct.ssdm_int<3, false>"* %0)
  %1 = bitcast %"struct.ap_int_base<14, false>"* %ref.tmp to i8*
  call void @llvm.lifetime.start.p0i8(i64 2, i8* %1) #100019
  call void @_ZNK12ap_range_refILi14ELb0EE3getEv(%"struct.ap_int_base<14, false>"* sret %ref.tmp, %"struct.ap_range_ref<14, false>"* %ref)
  %2 = bitcast %"struct.ap_int_base<14, false>"* %ref.tmp to %"struct.ssdm_int<14, false>"*
  %V = getelementptr inbounds %"struct.ssdm_int<14, false>", %"struct.ssdm_int<14, false>"* %2, i32 0, i32 0
  %3 = load i14, i14* %V, align 2
  %conv = trunc i14 %3 to i3
  %4 = bitcast %"struct.ap_int_base<3, false>"* %this to %"struct.ssdm_int<3, false>"*
  %V2 = getelementptr inbounds %"struct.ssdm_int<3, false>", %"struct.ssdm_int<3, false>"* %4, i32 0, i32 0
  store i3 %conv, i3* %V2, align 1
  %5 = bitcast %"struct.ap_int_base<14, false>"* %ref.tmp to i8*
  call void @llvm.lifetime.end.p0i8(i64 2, i8* %5) #100019
  ret void
}

; Function Attrs: alwaysinline nounwind
define linkonce_odr void @_ZN8ssdm_intILi3ELb0EEC2Ev(%"struct.ssdm_int<3, false>"* %this) unnamed_addr #100003 comdat align 2 !dbg !101110 !fpga.function.pragma !101111 {
entry:
  call void @llvm.dbg.value(metadata %"struct.ssdm_int<3, false>"* %this, metadata !101114, metadata !DIExpression()), !dbg !101115
  ret void, !dbg !101116
}

; Function Attrs: alwaysinline nounwind
define linkonce_odr void @_ZNK12ap_range_refILi14ELb0EE3getEv(%"struct.ap_int_base<14, false>"* noalias sret %agg.result, %"struct.ap_range_ref<14, false>"* %this) #100008 comdat align 2 !fpga.function.pragma !100997 {
entry:
  call void @_ZN11ap_int_baseILi14ELb0EEC2Ev(%"struct.ap_int_base<14, false>"* %agg.result)
  %d_bv = getelementptr inbounds %"struct.ap_range_ref<14, false>", %"struct.ap_range_ref<14, false>"* %this, i32 0, i32 0
  %0 = load %"struct.ap_int_base<14, false>"*, %"struct.ap_int_base<14, false>"** %d_bv, align 8
  %1 = bitcast %"struct.ap_int_base<14, false>"* %0 to %"struct.ssdm_int<14, false>"*
  %V = getelementptr inbounds %"struct.ssdm_int<14, false>", %"struct.ssdm_int<14, false>"* %1, i32 0, i32 0
  %2 = load i14, i14* %V, align 2
  %l_index = getelementptr inbounds %"struct.ap_range_ref<14, false>", %"struct.ap_range_ref<14, false>"* %this, i32 0, i32 1
  %3 = load i32, i32* %l_index, align 8
  %h_index = getelementptr inbounds %"struct.ap_range_ref<14, false>", %"struct.ap_range_ref<14, false>"* %this, i32 0, i32 2
  %4 = load i32, i32* %h_index, align 4
  %part_select = call i14 @llvm.fpga.legacy.part.select.i14(i14 %2, i32 %3, i32 %4)
  %5 = bitcast %"struct.ap_int_base<14, false>"* %agg.result to %"struct.ssdm_int<14, false>"*
  %V2 = getelementptr inbounds %"struct.ssdm_int<14, false>", %"struct.ssdm_int<14, false>"* %5, i32 0, i32 0
  store i14 %part_select, i14* %V2, align 2
  ret void
}

; Function Attrs: alwaysinline nounwind
define linkonce_odr void @_ZN11ap_int_baseILi14ELb0EEC2Ev(%"struct.ap_int_base<14, false>"* %this) unnamed_addr #100003 comdat align 2 !fpga.function.pragma !100997 {
entry:
  %0 = bitcast %"struct.ap_int_base<14, false>"* %this to %"struct.ssdm_int<14, false>"*
  call void @_ZN8ssdm_intILi14ELb0EEC2Ev(%"struct.ssdm_int<14, false>"* %0)
  ret void
}

; Function Attrs: nounwind readnone
declare i14 @llvm.fpga.legacy.part.select.i14(i14, i32, i32) #100009

; Function Attrs: alwaysinline nounwind
define linkonce_odr void @_ZN8ssdm_intILi14ELb0EEC2Ev(%"struct.ssdm_int<14, false>"* %this) unnamed_addr #100003 comdat align 2 !dbg !101117 !fpga.function.pragma !101118 {
entry:
  call void @llvm.dbg.value(metadata %"struct.ssdm_int<14, false>"* %this, metadata !101121, metadata !DIExpression()), !dbg !101123
  ret void, !dbg !101124
}

; Function Attrs: alwaysinline nounwind
define linkonce_odr void @_ZN11ap_int_baseILi3ELb0EEC2ILi65ELb1EEERKS_IXT_EXT0_EE(%"struct.ap_int_base<3, false>"* %this, %"struct.ap_int_base<65, true>"* dereferenceable(16) %op) unnamed_addr #100003 comdat align 2 !fpga.function.pragma !100997 {
entry:
  %0 = bitcast %"struct.ap_int_base<3, false>"* %this to %"struct.ssdm_int<3, false>"*
  %1 = bitcast %"struct.ap_int_base<65, true>"* %op to %"struct.ssdm_int<65, true>"*
  %V = getelementptr inbounds %"struct.ssdm_int<65, true>", %"struct.ssdm_int<65, true>"* %1, i32 0, i32 0
  %2 = load i65, i65* %V, align 16
  %conv = trunc i65 %2 to i3
  call void @_ZN8ssdm_intILi3ELb0EEC2EDq3_j(%"struct.ssdm_int<3, false>"* %0, i3 %conv)
  %3 = bitcast %"struct.ap_int_base<65, true>"* %op to %"struct.ssdm_int<65, true>"*
  %V2 = getelementptr inbounds %"struct.ssdm_int<65, true>", %"struct.ssdm_int<65, true>"* %3, i32 0, i32 0
  %4 = load i65, i65* %V2, align 16
  %conv3 = trunc i65 %4 to i3
  %5 = bitcast %"struct.ap_int_base<3, false>"* %this to %"struct.ssdm_int<3, false>"*
  %V4 = getelementptr inbounds %"struct.ssdm_int<3, false>", %"struct.ssdm_int<3, false>"* %5, i32 0, i32 0
  store i3 %conv3, i3* %V4, align 1
  ret void
}

; Function Attrs: alwaysinline nounwind
define linkonce_odr zeroext i1 @_ZNK11ap_int_baseILi65ELb1EE17checkOverflowCsimEibb(%"struct.ap_int_base<65, true>"* %this, i32 %_ap_w2, i1 zeroext %_ap_s2, i1 zeroext %print) #100007 comdat align 2 !fpga.function.pragma !100997 {
entry:
  ret i1 false
}

; Function Attrs: alwaysinline nounwind
define linkonce_odr void @_ZanILi64ELb0ELi32ELb1EEN11ap_int_baseIXT_EXT0_EE5RTypeIXT1_EXT2_EE5logicERKS1_RKS0_IXT1_EXT2_EE(%"struct.ap_int<65>"* noalias sret %agg.result, %"struct.ap_int_base<64, false>"* dereferenceable(8) %op, %"struct.ap_int_base<32, false>"* dereferenceable(4) %op2) #100003 comdat !fpga.function.pragma !100997 {
entry:
  %lhs = alloca %"struct.ap_int_base<65, true>", align 16
  %rhs = alloca %"struct.ap_int_base<65, true>", align 16
  %ret = alloca %"struct.ap_int_base<65, true>", align 16
  %0 = bitcast %"struct.ap_int_base<65, true>"* %lhs to i8*
  call void @llvm.lifetime.start.p0i8(i64 16, i8* %0) #100019
  call void @_ZN11ap_int_baseILi65ELb1EEC2ILi64ELb0EEERKS_IXT_EXT0_EE(%"struct.ap_int_base<65, true>"* %lhs, %"struct.ap_int_base<64, false>"* dereferenceable(8) %op)
  %1 = bitcast %"struct.ap_int_base<65, true>"* %rhs to i8*
  call void @llvm.lifetime.start.p0i8(i64 16, i8* %1) #100019
  call void @_ZN11ap_int_baseILi65ELb1EEC2ILi32ELb1EEERKS_IXT_EXT0_EE(%"struct.ap_int_base<65, true>"* %rhs, %"struct.ap_int_base<32, false>"* dereferenceable(4) %op2)
  %2 = bitcast %"struct.ap_int_base<65, true>"* %ret to i8*
  call void @llvm.lifetime.start.p0i8(i64 16, i8* %2) #100019
  call void @_ZN11ap_int_baseILi65ELb1EEC2Ei(%"struct.ap_int_base<65, true>"* %ret, i32 0)
  %3 = bitcast %"struct.ap_int_base<65, true>"* %lhs to %"struct.ssdm_int<65, true>"*
  %V = getelementptr inbounds %"struct.ssdm_int<65, true>", %"struct.ssdm_int<65, true>"* %3, i32 0, i32 0
  %4 = load i65, i65* %V, align 16
  %5 = bitcast %"struct.ap_int_base<65, true>"* %rhs to %"struct.ssdm_int<65, true>"*
  %V1 = getelementptr inbounds %"struct.ssdm_int<65, true>", %"struct.ssdm_int<65, true>"* %5, i32 0, i32 0
  %6 = load i65, i65* %V1, align 16
  %and = and i65 %4, %6
  %7 = bitcast %"struct.ap_int_base<65, true>"* %ret to %"struct.ssdm_int<65, true>"*
  %V2 = getelementptr inbounds %"struct.ssdm_int<65, true>", %"struct.ssdm_int<65, true>"* %7, i32 0, i32 0
  store i65 %and, i65* %V2, align 16
  call void @_ZN6ap_intILi65EEC2ILi65ELb1EEERK11ap_int_baseIXT_EXT0_EE(%"struct.ap_int<65>"* %agg.result, %"struct.ap_int_base<65, true>"* dereferenceable(16) %ret)
  %8 = bitcast %"struct.ap_int_base<65, true>"* %ret to i8*
  call void @llvm.lifetime.end.p0i8(i64 16, i8* %8) #100019
  %9 = bitcast %"struct.ap_int_base<65, true>"* %rhs to i8*
  call void @llvm.lifetime.end.p0i8(i64 16, i8* %9) #100019
  %10 = bitcast %"struct.ap_int_base<65, true>"* %lhs to i8*
  call void @llvm.lifetime.end.p0i8(i64 16, i8* %10) #100019
  ret void
}

; Function Attrs: alwaysinline nounwind
define linkonce_odr void @_ZN11ap_int_baseILi65ELb1EEC2ILi32ELb1EEERKS_IXT_EXT0_EE(%"struct.ap_int_base<65, true>"* %this, %"struct.ap_int_base<32, false>"* dereferenceable(4) %op) unnamed_addr #100003 comdat align 2 !fpga.function.pragma !100997 {
entry:
  %0 = bitcast %"struct.ap_int_base<65, true>"* %this to %"struct.ssdm_int<65, true>"*
  %1 = bitcast %"struct.ap_int_base<32, false>"* %op to %"struct.ssdm_int<32, false>"*
  %V = getelementptr inbounds %"struct.ssdm_int<32, false>", %"struct.ssdm_int<32, false>"* %1, i32 0, i32 0
  %2 = load i32, i32* %V, align 4
  %conv = sext i32 %2 to i65
  call void @_ZN8ssdm_intILi65ELb1EEC2EDq65_i(%"struct.ssdm_int<65, true>"* %0, i65 %conv)
  %3 = bitcast %"struct.ap_int_base<32, false>"* %op to %"struct.ssdm_int<32, false>"*
  %V2 = getelementptr inbounds %"struct.ssdm_int<32, false>", %"struct.ssdm_int<32, false>"* %3, i32 0, i32 0
  %4 = load i32, i32* %V2, align 4
  %conv3 = sext i32 %4 to i65
  %5 = bitcast %"struct.ap_int_base<65, true>"* %this to %"struct.ssdm_int<65, true>"*
  %V4 = getelementptr inbounds %"struct.ssdm_int<65, true>", %"struct.ssdm_int<65, true>"* %5, i32 0, i32 0
  store i65 %conv3, i65* %V4, align 16
  ret void
}

; Function Attrs: alwaysinline nounwind
define linkonce_odr void @_ZNK11ap_int_baseILi64ELb0EElsILi33EEE7ap_uintILi64EERKS_IXT_ELb0EE(%"struct.ap_uint<64>"* noalias sret %agg.result, %"struct.ap_int_base<64, false>"* %this, %"struct.ap_int_base<33, true>"* dereferenceable(8) %op2) #100003 comdat align 2 !fpga.function.pragma !100997 {
entry:
  %r = alloca %"struct.ap_int_base<64, false>", align 8
  %0 = bitcast %"struct.ap_int_base<64, false>"* %r to i8*
  call void @llvm.lifetime.start.p0i8(i64 8, i8* %0) #100019
  call void @_ZN11ap_int_baseILi64ELb0EEC2Ei(%"struct.ap_int_base<64, false>"* %r, i32 0)
  %1 = bitcast %"struct.ap_int_base<64, false>"* %this to %"struct.ssdm_int<64, false>"*
  %V = getelementptr inbounds %"struct.ssdm_int<64, false>", %"struct.ssdm_int<64, false>"* %1, i32 0, i32 0
  %2 = load i64, i64* %V, align 8
  %call = call i32 @_ZNK11ap_int_baseILi33ELb0EE7to_uintEv(%"struct.ap_int_base<33, true>"* %op2)
  %sh_prom = zext i32 %call to i64
  %shl = shl i64 %2, %sh_prom
  %3 = bitcast %"struct.ap_int_base<64, false>"* %r to %"struct.ssdm_int<64, false>"*
  %V2 = getelementptr inbounds %"struct.ssdm_int<64, false>", %"struct.ssdm_int<64, false>"* %3, i32 0, i32 0
  store i64 %shl, i64* %V2, align 8
  call void @_ZN7ap_uintILi64EEC2ILi64ELb0EEERK11ap_int_baseIXT_EXT0_EE(%"struct.ap_uint<64>"* %agg.result, %"struct.ap_int_base<64, false>"* dereferenceable(8) %r)
  %4 = bitcast %"struct.ap_int_base<64, false>"* %r to i8*
  call void @llvm.lifetime.end.p0i8(i64 8, i8* %4) #100019
  ret void
}

; Function Attrs: alwaysinline nounwind
define linkonce_odr void @_ZNK11ap_int_baseILi64ELb0EErsILi33EEE7ap_uintILi64EERKS_IXT_ELb0EE(%"struct.ap_uint<64>"* noalias sret %agg.result, %"struct.ap_int_base<64, false>"* %this, %"struct.ap_int_base<33, true>"* dereferenceable(8) %op2) #100003 comdat align 2 !fpga.function.pragma !100997 {
entry:
  %r = alloca %"struct.ap_int_base<64, false>", align 8
  %0 = bitcast %"struct.ap_int_base<64, false>"* %r to i8*
  call void @llvm.lifetime.start.p0i8(i64 8, i8* %0) #100019
  call void @_ZN11ap_int_baseILi64ELb0EEC2Ei(%"struct.ap_int_base<64, false>"* %r, i32 0)
  %1 = bitcast %"struct.ap_int_base<64, false>"* %this to %"struct.ssdm_int<64, false>"*
  %V = getelementptr inbounds %"struct.ssdm_int<64, false>", %"struct.ssdm_int<64, false>"* %1, i32 0, i32 0
  %2 = load i64, i64* %V, align 8
  %call = call i32 @_ZNK11ap_int_baseILi33ELb0EE7to_uintEv(%"struct.ap_int_base<33, true>"* %op2)
  %sh_prom = zext i32 %call to i64
  %shr = lshr i64 %2, %sh_prom
  %3 = bitcast %"struct.ap_int_base<64, false>"* %r to %"struct.ssdm_int<64, false>"*
  %V2 = getelementptr inbounds %"struct.ssdm_int<64, false>", %"struct.ssdm_int<64, false>"* %3, i32 0, i32 0
  store i64 %shr, i64* %V2, align 8
  call void @_ZN7ap_uintILi64EEC2ILi64ELb0EEERK11ap_int_baseIXT_EXT0_EE(%"struct.ap_uint<64>"* %agg.result, %"struct.ap_int_base<64, false>"* dereferenceable(8) %r)
  %4 = bitcast %"struct.ap_int_base<64, false>"* %r to i8*
  call void @llvm.lifetime.end.p0i8(i64 8, i8* %4) #100019
  ret void
}

; Function Attrs: alwaysinline nounwind
define linkonce_odr void @_ZN11ap_int_baseILi64ELb0EEC2Ei(%"struct.ap_int_base<64, false>"* %this, i32 %op) unnamed_addr #100003 comdat align 2 !fpga.function.pragma !100997 {
entry:
  %0 = bitcast %"struct.ap_int_base<64, false>"* %this to %"struct.ssdm_int<64, false>"*
  %conv = sext i32 %op to i64
  call void @_ZN8ssdm_intILi64ELb0EEC2Em(%"struct.ssdm_int<64, false>"* %0, i64 %conv)
  %conv2 = sext i32 %op to i64
  %1 = bitcast %"struct.ap_int_base<64, false>"* %this to %"struct.ssdm_int<64, false>"*
  %V = getelementptr inbounds %"struct.ssdm_int<64, false>", %"struct.ssdm_int<64, false>"* %1, i32 0, i32 0
  store i64 %conv2, i64* %V, align 8
  ret void
}

; Function Attrs: alwaysinline nounwind
define linkonce_odr void @_ZN7ap_uintILi64EEC2ILi64ELb0EEERK11ap_int_baseIXT_EXT0_EE(%"struct.ap_uint<64>"* %this, %"struct.ap_int_base<64, false>"* dereferenceable(8) %op) unnamed_addr #100003 comdat align 2 !fpga.function.pragma !100997 {
entry:
  %0 = bitcast %"struct.ap_uint<64>"* %this to %"struct.ap_int_base<64, false>"*
  %1 = load %"struct.ap_int_base<64, false>", %"struct.ap_int_base<64, false>"* %op, align 8
  store %"struct.ap_int_base<64, false>" %1, %"struct.ap_int_base<64, false>"* %0, align 8
  ret void
}

; Function Attrs: alwaysinline nounwind
define linkonce_odr void @_ZN8ssdm_intILi64ELb0EEC2Em(%"struct.ssdm_int<64, false>"* %this, i64 %o) unnamed_addr #100003 comdat align 2 !dbg !101125 !fpga.function.pragma !101126 {
entry:
  call void @llvm.dbg.value(metadata %"struct.ssdm_int<64, false>"* %this, metadata !101129, metadata !DIExpression()), !dbg !101131
  call void @llvm.dbg.value(metadata i64 %o, metadata !101132, metadata !DIExpression()), !dbg !101133
  %V = getelementptr inbounds %"struct.ssdm_int<64, false>", %"struct.ssdm_int<64, false>"* %this, i32 0, i32 0, !dbg !101134
  store i64 %o, i64* %V, align 8, !dbg !101134
  ret void, !dbg !101135
}

; Function Attrs: alwaysinline nounwind
define linkonce_odr void @_ZplILi6ELb0ELi32ELb1EEN11ap_int_baseIXT_EXT0_EE5RTypeIXT1_EXT2_EE4plusERKS1_RKS0_IXT1_EXT2_EE(%"struct.ap_int<33>"* noalias sret %agg.result, %"struct.ap_int_base<6, false>"* dereferenceable(1) %op, %"struct.ap_int_base<32, false>"* dereferenceable(4) %op2) #100003 comdat !fpga.function.pragma !100997 {
entry:
  %lhs = alloca %"struct.ap_int_base<33, true>", align 8
  %rhs = alloca %"struct.ap_int_base<33, true>", align 8
  %ret = alloca %"struct.ap_int_base<33, true>", align 8
  %0 = bitcast %"struct.ap_int_base<33, true>"* %lhs to i8*
  call void @llvm.lifetime.start.p0i8(i64 8, i8* %0) #100019
  call void @_ZN11ap_int_baseILi33ELb1EEC2ILi6ELb0EEERKS_IXT_EXT0_EE(%"struct.ap_int_base<33, true>"* %lhs, %"struct.ap_int_base<6, false>"* dereferenceable(1) %op)
  %1 = bitcast %"struct.ap_int_base<33, true>"* %rhs to i8*
  call void @llvm.lifetime.start.p0i8(i64 8, i8* %1) #100019
  call void @_ZN11ap_int_baseILi33ELb1EEC2ILi32ELb1EEERKS_IXT_EXT0_EE(%"struct.ap_int_base<33, true>"* %rhs, %"struct.ap_int_base<32, false>"* dereferenceable(4) %op2)
  %2 = bitcast %"struct.ap_int_base<33, true>"* %ret to i8*
  call void @llvm.lifetime.start.p0i8(i64 8, i8* %2) #100019
  call void @_ZN11ap_int_baseILi33ELb1EEC2Ei(%"struct.ap_int_base<33, true>"* %ret, i32 0)
  %3 = bitcast %"struct.ap_int_base<33, true>"* %lhs to %"struct.ssdm_int<33, true>"*
  %V = getelementptr inbounds %"struct.ssdm_int<33, true>", %"struct.ssdm_int<33, true>"* %3, i32 0, i32 0
  %4 = load i33, i33* %V, align 8
  %5 = bitcast %"struct.ap_int_base<33, true>"* %rhs to %"struct.ssdm_int<33, true>"*
  %V1 = getelementptr inbounds %"struct.ssdm_int<33, true>", %"struct.ssdm_int<33, true>"* %5, i32 0, i32 0
  %6 = load i33, i33* %V1, align 8
  %add = add nsw i33 %4, %6
  %7 = bitcast %"struct.ap_int_base<33, true>"* %ret to %"struct.ssdm_int<33, true>"*
  %V2 = getelementptr inbounds %"struct.ssdm_int<33, true>", %"struct.ssdm_int<33, true>"* %7, i32 0, i32 0
  store i33 %add, i33* %V2, align 8
  call void @_ZN6ap_intILi33EEC2ILi33ELb1EEERK11ap_int_baseIXT_EXT0_EE(%"struct.ap_int<33>"* %agg.result, %"struct.ap_int_base<33, true>"* dereferenceable(8) %ret)
  %8 = bitcast %"struct.ap_int_base<33, true>"* %ret to i8*
  call void @llvm.lifetime.end.p0i8(i64 8, i8* %8) #100019
  %9 = bitcast %"struct.ap_int_base<33, true>"* %rhs to i8*
  call void @llvm.lifetime.end.p0i8(i64 8, i8* %9) #100019
  %10 = bitcast %"struct.ap_int_base<33, true>"* %lhs to i8*
  call void @llvm.lifetime.end.p0i8(i64 8, i8* %10) #100019
  ret void
}

; Function Attrs: alwaysinline nounwind
define linkonce_odr void @_ZN11ap_int_baseILi33ELb1EEC2ILi6ELb0EEERKS_IXT_EXT0_EE(%"struct.ap_int_base<33, true>"* %this, %"struct.ap_int_base<6, false>"* dereferenceable(1) %op) unnamed_addr #100003 comdat align 2 !fpga.function.pragma !100997 {
entry:
  %0 = bitcast %"struct.ap_int_base<33, true>"* %this to %"struct.ssdm_int<33, true>"*
  %1 = bitcast %"struct.ap_int_base<6, false>"* %op to %"struct.ssdm_int<6, false>"*
  %V = getelementptr inbounds %"struct.ssdm_int<6, false>", %"struct.ssdm_int<6, false>"* %1, i32 0, i32 0
  %2 = load i6, i6* %V, align 1
  %conv = zext i6 %2 to i33
  call void @_ZN8ssdm_intILi33ELb1EEC2EDq33_i(%"struct.ssdm_int<33, true>"* %0, i33 %conv)
  %3 = bitcast %"struct.ap_int_base<6, false>"* %op to %"struct.ssdm_int<6, false>"*
  %V2 = getelementptr inbounds %"struct.ssdm_int<6, false>", %"struct.ssdm_int<6, false>"* %3, i32 0, i32 0
  %4 = load i6, i6* %V2, align 1
  %conv3 = zext i6 %4 to i33
  %5 = bitcast %"struct.ap_int_base<33, true>"* %this to %"struct.ssdm_int<33, true>"*
  %V4 = getelementptr inbounds %"struct.ssdm_int<33, true>", %"struct.ssdm_int<33, true>"* %5, i32 0, i32 0
  store i33 %conv3, i33* %V4, align 8
  ret void
}

; Function Attrs: alwaysinline nounwind
define linkonce_odr void @_ZN11ap_int_baseILi14ELb0EEC2ILi2ES_ILi2ELb0EELi14E12ap_range_refILi14ELb0EEEERK13ap_concat_refIXT_ET0_XT1_ET2_E(%"struct.ap_int_base<14, false>"* %this, %"struct.ap_concat_ref<2, ap_int_base<2, false>, 14, ap_range_ref<14, false> >"* dereferenceable(16) %ref) unnamed_addr #100003 comdat align 2 !fpga.function.pragma !100997 {
entry:
  %tmp = alloca %"struct.ap_int_base<16, false>", align 2
  %0 = bitcast %"struct.ap_int_base<14, false>"* %this to %"struct.ssdm_int<14, false>"*
  call void @_ZN8ssdm_intILi14ELb0EEC2Ev(%"struct.ssdm_int<14, false>"* %0)
  %1 = bitcast %"struct.ap_int_base<16, false>"* %tmp to i8*
  call void @llvm.lifetime.start.p0i8(i64 2, i8* %1) #100019
  call void @_ZNK13ap_concat_refILi2E11ap_int_baseILi2ELb0EELi14E12ap_range_refILi14ELb0EEE3getEv(%"struct.ap_int_base<16, false>"* sret %tmp, %"struct.ap_concat_ref<2, ap_int_base<2, false>, 14, ap_range_ref<14, false> >"* %ref)
  %2 = bitcast %"struct.ap_int_base<16, false>"* %tmp to %"struct.ssdm_int<16, false>"*
  %V = getelementptr inbounds %"struct.ssdm_int<16, false>", %"struct.ssdm_int<16, false>"* %2, i32 0, i32 0
  %3 = load i16, i16* %V, align 2
  %conv = trunc i16 %3 to i14
  %4 = bitcast %"struct.ap_int_base<14, false>"* %this to %"struct.ssdm_int<14, false>"*
  %V2 = getelementptr inbounds %"struct.ssdm_int<14, false>", %"struct.ssdm_int<14, false>"* %4, i32 0, i32 0
  store i14 %conv, i14* %V2, align 2
  %5 = bitcast %"struct.ap_int_base<16, false>"* %tmp to i8*
  call void @llvm.lifetime.end.p0i8(i64 2, i8* %5) #100019
  ret void
}

; Function Attrs: alwaysinline nounwind
define linkonce_odr void @_ZNK13ap_concat_refILi2E11ap_int_baseILi2ELb0EELi14E12ap_range_refILi14ELb0EEE3getEv(%"struct.ap_int_base<16, false>"* noalias sret %agg.result, %"struct.ap_concat_ref<2, ap_int_base<2, false>, 14, ap_range_ref<14, false> >"* %this) #100008 comdat align 2 !fpga.function.pragma !100997 {
entry:
  %v2 = alloca %"struct.ap_int_base<14, false>", align 2
  %v1 = alloca %"struct.ap_int_base<2, false>", align 1
  call void @_ZN11ap_int_baseILi16ELb0EEC2Ei(%"struct.ap_int_base<16, false>"* %agg.result, i32 0)
  %mbv1 = getelementptr inbounds %"struct.ap_concat_ref<2, ap_int_base<2, false>, 14, ap_range_ref<14, false> >", %"struct.ap_concat_ref<2, ap_int_base<2, false>, 14, ap_range_ref<14, false> >"* %this, i32 0, i32 0
  %0 = load %"struct.ap_int_base<2, false>"*, %"struct.ap_int_base<2, false>"** %mbv1, align 8
  %call = call i32 @_ZNK11ap_int_baseILi2ELb0EE6lengthEv(%"struct.ap_int_base<2, false>"* %0)
  %mbv2 = getelementptr inbounds %"struct.ap_concat_ref<2, ap_int_base<2, false>, 14, ap_range_ref<14, false> >", %"struct.ap_concat_ref<2, ap_int_base<2, false>, 14, ap_range_ref<14, false> >"* %this, i32 0, i32 1
  %1 = load %"struct.ap_range_ref<14, false>"*, %"struct.ap_range_ref<14, false>"** %mbv2, align 8
  %call2 = call i32 @_ZNK12ap_range_refILi14ELb0EE6lengthEv(%"struct.ap_range_ref<14, false>"* %1)
  %2 = bitcast %"struct.ap_int_base<14, false>"* %v2 to i8*
  call void @llvm.lifetime.start.p0i8(i64 2, i8* %2) #100019
  %mbv23 = getelementptr inbounds %"struct.ap_concat_ref<2, ap_int_base<2, false>, 14, ap_range_ref<14, false> >", %"struct.ap_concat_ref<2, ap_int_base<2, false>, 14, ap_range_ref<14, false> >"* %this, i32 0, i32 1
  %3 = load %"struct.ap_range_ref<14, false>"*, %"struct.ap_range_ref<14, false>"** %mbv23, align 8
  call void @_ZN11ap_int_baseILi14ELb0EEC2ILi14ELb0EEERK12ap_range_refIXT_EXT0_EE(%"struct.ap_int_base<14, false>"* %v2, %"struct.ap_range_ref<14, false>"* dereferenceable(16) %3)
  %4 = bitcast %"struct.ap_int_base<2, false>"* %v1 to i8*
  call void @llvm.lifetime.start.p0i8(i64 1, i8* %4) #100019
  %mbv14 = getelementptr inbounds %"struct.ap_concat_ref<2, ap_int_base<2, false>, 14, ap_range_ref<14, false> >", %"struct.ap_concat_ref<2, ap_int_base<2, false>, 14, ap_range_ref<14, false> >"* %this, i32 0, i32 0
  %5 = load %"struct.ap_int_base<2, false>"*, %"struct.ap_int_base<2, false>"** %mbv14, align 8
  %6 = load %"struct.ap_int_base<2, false>", %"struct.ap_int_base<2, false>"* %5, align 1
  store %"struct.ap_int_base<2, false>" %6, %"struct.ap_int_base<2, false>"* %v1, align 1
  %7 = bitcast %"struct.ap_int_base<16, false>"* %agg.result to %"struct.ssdm_int<16, false>"*
  %V = getelementptr inbounds %"struct.ssdm_int<16, false>", %"struct.ssdm_int<16, false>"* %7, i32 0, i32 0
  %8 = load i16, i16* %V, align 2
  %9 = bitcast %"struct.ap_int_base<14, false>"* %v2 to %"struct.ssdm_int<14, false>"*
  %V5 = getelementptr inbounds %"struct.ssdm_int<14, false>", %"struct.ssdm_int<14, false>"* %9, i32 0, i32 0
  %10 = load i14, i14* %V5, align 2
  %sub = sub nsw i32 %call2, 1
  %part_set = call i16 @llvm.fpga.legacy.part.set.i16.i14(i16 %8, i14 %10, i32 0, i32 %sub)
  %11 = bitcast %"struct.ap_int_base<16, false>"* %agg.result to %"struct.ssdm_int<16, false>"*
  %V6 = getelementptr inbounds %"struct.ssdm_int<16, false>", %"struct.ssdm_int<16, false>"* %11, i32 0, i32 0
  store i16 %part_set, i16* %V6, align 2
  %12 = bitcast %"struct.ap_int_base<16, false>"* %agg.result to %"struct.ssdm_int<16, false>"*
  %V9 = getelementptr inbounds %"struct.ssdm_int<16, false>", %"struct.ssdm_int<16, false>"* %12, i32 0, i32 0
  %13 = load i16, i16* %V9, align 2
  %14 = bitcast %"struct.ap_int_base<2, false>"* %v1 to %"struct.ssdm_int<2, false>"*
  %V11 = getelementptr inbounds %"struct.ssdm_int<2, false>", %"struct.ssdm_int<2, false>"* %14, i32 0, i32 0
  %15 = load i2, i2* %V11, align 1
  %add = add nsw i32 %call, %call2
  %sub12 = sub nsw i32 %add, 1
  %part_set13 = call i16 @llvm.fpga.legacy.part.set.i16.i2(i16 %13, i2 %15, i32 %call2, i32 %sub12)
  %16 = bitcast %"struct.ap_int_base<16, false>"* %agg.result to %"struct.ssdm_int<16, false>"*
  %V15 = getelementptr inbounds %"struct.ssdm_int<16, false>", %"struct.ssdm_int<16, false>"* %16, i32 0, i32 0
  store i16 %part_set13, i16* %V15, align 2
  %17 = bitcast %"struct.ap_int_base<2, false>"* %v1 to i8*
  call void @llvm.lifetime.end.p0i8(i64 1, i8* %17) #100019
  %18 = bitcast %"struct.ap_int_base<14, false>"* %v2 to i8*
  call void @llvm.lifetime.end.p0i8(i64 2, i8* %18) #100019
  ret void
}

; Function Attrs: alwaysinline nounwind
define linkonce_odr void @_ZN11ap_int_baseILi16ELb0EEC2Ei(%"struct.ap_int_base<16, false>"* %this, i32 %op) unnamed_addr #100003 comdat align 2 !fpga.function.pragma !100997 {
entry:
  %0 = bitcast %"struct.ap_int_base<16, false>"* %this to %"struct.ssdm_int<16, false>"*
  %conv = trunc i32 %op to i16
  call void @_ZN8ssdm_intILi16ELb0EEC2Et(%"struct.ssdm_int<16, false>"* %0, i16 zeroext %conv)
  %conv2 = trunc i32 %op to i16
  %1 = bitcast %"struct.ap_int_base<16, false>"* %this to %"struct.ssdm_int<16, false>"*
  %V = getelementptr inbounds %"struct.ssdm_int<16, false>", %"struct.ssdm_int<16, false>"* %1, i32 0, i32 0
  store i16 %conv2, i16* %V, align 2
  ret void
}

; Function Attrs: alwaysinline nounwind
define linkonce_odr i32 @_ZNK11ap_int_baseILi2ELb0EE6lengthEv(%"struct.ap_int_base<2, false>"* %this) #100010 comdat align 2 !fpga.function.pragma !100997 {
entry:
  ret i32 2
}

; Function Attrs: alwaysinline nounwind
define linkonce_odr i32 @_ZNK12ap_range_refILi14ELb0EE6lengthEv(%"struct.ap_range_ref<14, false>"* %this) #100010 comdat align 2 !fpga.function.pragma !100997 {
entry:
  %h_index = getelementptr inbounds %"struct.ap_range_ref<14, false>", %"struct.ap_range_ref<14, false>"* %this, i32 0, i32 2
  %0 = load i32, i32* %h_index, align 4
  %l_index = getelementptr inbounds %"struct.ap_range_ref<14, false>", %"struct.ap_range_ref<14, false>"* %this, i32 0, i32 1
  %1 = load i32, i32* %l_index, align 8
  %cmp = icmp sge i32 %0, %1
  br i1 %cmp, label %cond.true, label %cond.false

cond.true:                                        ; preds = %entry
  %h_index2 = getelementptr inbounds %"struct.ap_range_ref<14, false>", %"struct.ap_range_ref<14, false>"* %this, i32 0, i32 2
  %2 = load i32, i32* %h_index2, align 4
  %l_index3 = getelementptr inbounds %"struct.ap_range_ref<14, false>", %"struct.ap_range_ref<14, false>"* %this, i32 0, i32 1
  %3 = load i32, i32* %l_index3, align 8
  %sub = sub nsw i32 %2, %3
  %add = add nsw i32 %sub, 1
  br label %cond.end

cond.false:                                       ; preds = %entry
  %l_index4 = getelementptr inbounds %"struct.ap_range_ref<14, false>", %"struct.ap_range_ref<14, false>"* %this, i32 0, i32 1
  %4 = load i32, i32* %l_index4, align 8
  %h_index5 = getelementptr inbounds %"struct.ap_range_ref<14, false>", %"struct.ap_range_ref<14, false>"* %this, i32 0, i32 2
  %5 = load i32, i32* %h_index5, align 4
  %sub6 = sub nsw i32 %4, %5
  %add7 = add nsw i32 %sub6, 1
  br label %cond.end

cond.end:                                         ; preds = %cond.false, %cond.true
  %cond = phi i32 [ %add, %cond.true ], [ %add7, %cond.false ]
  ret i32 %cond
}

; Function Attrs: alwaysinline nounwind
define linkonce_odr void @_ZN11ap_int_baseILi14ELb0EEC2ILi14ELb0EEERK12ap_range_refIXT_EXT0_EE(%"struct.ap_int_base<14, false>"* %this, %"struct.ap_range_ref<14, false>"* dereferenceable(16) %ref) unnamed_addr #100003 comdat align 2 !fpga.function.pragma !100997 {
entry:
  %ref.tmp = alloca %"struct.ap_int_base<14, false>", align 2
  %0 = bitcast %"struct.ap_int_base<14, false>"* %this to %"struct.ssdm_int<14, false>"*
  call void @_ZN8ssdm_intILi14ELb0EEC2Ev(%"struct.ssdm_int<14, false>"* %0)
  %1 = bitcast %"struct.ap_int_base<14, false>"* %ref.tmp to i8*
  call void @llvm.lifetime.start.p0i8(i64 2, i8* %1) #100019
  call void @_ZNK12ap_range_refILi14ELb0EE3getEv(%"struct.ap_int_base<14, false>"* sret %ref.tmp, %"struct.ap_range_ref<14, false>"* %ref)
  %2 = bitcast %"struct.ap_int_base<14, false>"* %ref.tmp to %"struct.ssdm_int<14, false>"*
  %V = getelementptr inbounds %"struct.ssdm_int<14, false>", %"struct.ssdm_int<14, false>"* %2, i32 0, i32 0
  %3 = load i14, i14* %V, align 2
  %4 = bitcast %"struct.ap_int_base<14, false>"* %this to %"struct.ssdm_int<14, false>"*
  %V2 = getelementptr inbounds %"struct.ssdm_int<14, false>", %"struct.ssdm_int<14, false>"* %4, i32 0, i32 0
  store i14 %3, i14* %V2, align 2
  %5 = bitcast %"struct.ap_int_base<14, false>"* %ref.tmp to i8*
  call void @llvm.lifetime.end.p0i8(i64 2, i8* %5) #100019
  ret void
}

; Function Attrs: nounwind readnone
declare i16 @llvm.fpga.legacy.part.set.i16.i14(i16, i14, i32, i32) #100009

; Function Attrs: nounwind readnone
declare i16 @llvm.fpga.legacy.part.set.i16.i2(i16, i2, i32, i32) #100009

; Function Attrs: alwaysinline nounwind
define linkonce_odr void @_ZN8ssdm_intILi16ELb0EEC2Et(%"struct.ssdm_int<16, false>"* %this, i16 zeroext %o) unnamed_addr #100003 comdat align 2 !dbg !101136 !fpga.function.pragma !101150 {
entry:
  call void @llvm.dbg.value(metadata %"struct.ssdm_int<16, false>"* %this, metadata !101153, metadata !DIExpression()), !dbg !101155
  call void @llvm.dbg.value(metadata i16 %o, metadata !101156, metadata !DIExpression()), !dbg !101157
  %V = getelementptr inbounds %"struct.ssdm_int<16, false>", %"struct.ssdm_int<16, false>"* %this, i32 0, i32 0, !dbg !101158
  store i16 %o, i16* %V, align 2, !dbg !101158
  ret void, !dbg !101159
}

; Function Attrs: alwaysinline nounwind
define linkonce_odr void @_ZN13ap_concat_refILi2E11ap_int_baseILi2ELb0EELi14E12ap_range_refILi14ELb0EEEC2ERS1_RS3_(%"struct.ap_concat_ref<2, ap_int_base<2, false>, 14, ap_range_ref<14, false> >"* %this, %"struct.ap_int_base<2, false>"* dereferenceable(1) %bv1, %"struct.ap_range_ref<14, false>"* dereferenceable(16) %bv2) unnamed_addr #100003 comdat align 2 !fpga.function.pragma !100997 {
entry:
  %mbv1 = getelementptr inbounds %"struct.ap_concat_ref<2, ap_int_base<2, false>, 14, ap_range_ref<14, false> >", %"struct.ap_concat_ref<2, ap_int_base<2, false>, 14, ap_range_ref<14, false> >"* %this, i32 0, i32 0
  store %"struct.ap_int_base<2, false>"* %bv1, %"struct.ap_int_base<2, false>"** %mbv1, align 8
  %mbv2 = getelementptr inbounds %"struct.ap_concat_ref<2, ap_int_base<2, false>, 14, ap_range_ref<14, false> >", %"struct.ap_concat_ref<2, ap_int_base<2, false>, 14, ap_range_ref<14, false> >"* %this, i32 0, i32 1
  store %"struct.ap_range_ref<14, false>"* %bv2, %"struct.ap_range_ref<14, false>"** %mbv2, align 8
  ret void
}

; Function Attrs: alwaysinline nounwind
define linkonce_odr dereferenceable(2) %"struct.ap_int_base<14, false>"* @_ZN11ap_int_baseILi14ELb0EEaNILi32ELb1EEERS0_RKS_IXT_EXT0_EE(%"struct.ap_int_base<14, false>"* %this, %"struct.ap_int_base<32, false>"* dereferenceable(4) %op2) #100003 comdat align 2 !fpga.function.pragma !100997 {
entry:
  %0 = bitcast %"struct.ap_int_base<32, false>"* %op2 to %"struct.ssdm_int<32, false>"*
  %V = getelementptr inbounds %"struct.ssdm_int<32, false>", %"struct.ssdm_int<32, false>"* %0, i32 0, i32 0
  %1 = load i32, i32* %V, align 4
  %2 = bitcast %"struct.ap_int_base<14, false>"* %this to %"struct.ssdm_int<14, false>"*
  %V2 = getelementptr inbounds %"struct.ssdm_int<14, false>", %"struct.ssdm_int<14, false>"* %2, i32 0, i32 0
  %3 = load i14, i14* %V2, align 2
  %conv = zext i14 %3 to i32
  %and = and i32 %conv, %1
  %conv3 = trunc i32 %and to i14
  store i14 %conv3, i14* %V2, align 2
  ret %"struct.ap_int_base<14, false>"* %this
}

; Function Attrs: alwaysinline nounwind
define linkonce_odr dereferenceable(1) %"struct.ap_int_base<2, false>"* @_ZN11ap_int_baseILi2ELb0EEaNILi32ELb1EEERS0_RKS_IXT_EXT0_EE(%"struct.ap_int_base<2, false>"* %this, %"struct.ap_int_base<32, false>"* dereferenceable(4) %op2) #100003 comdat align 2 !fpga.function.pragma !100997 {
entry:
  %0 = bitcast %"struct.ap_int_base<32, false>"* %op2 to %"struct.ssdm_int<32, false>"*
  %V = getelementptr inbounds %"struct.ssdm_int<32, false>", %"struct.ssdm_int<32, false>"* %0, i32 0, i32 0
  %1 = load i32, i32* %V, align 4
  %2 = bitcast %"struct.ap_int_base<2, false>"* %this to %"struct.ssdm_int<2, false>"*
  %V2 = getelementptr inbounds %"struct.ssdm_int<2, false>", %"struct.ssdm_int<2, false>"* %2, i32 0, i32 0
  %3 = load i2, i2* %V2, align 1
  %conv = zext i2 %3 to i32
  %and = and i32 %conv, %1
  %conv3 = trunc i32 %and to i2
  store i2 %conv3, i2* %V2, align 1
  ret %"struct.ap_int_base<2, false>"* %this
}

; Function Attrs: alwaysinline nounwind
define linkonce_odr void @_ZN11ap_int_baseILi2ELb0EEC2ILi34ELb1EEERKS_IXT_EXT0_EE(%"struct.ap_int_base<2, false>"* %this, %"struct.ap_int_base<34, true>"* dereferenceable(8) %op) unnamed_addr #100003 comdat align 2 !fpga.function.pragma !100997 {
entry:
  %0 = bitcast %"struct.ap_int_base<2, false>"* %this to %"struct.ssdm_int<2, false>"*
  %1 = bitcast %"struct.ap_int_base<34, true>"* %op to %"struct.ssdm_int<34, true>"*
  %V = getelementptr inbounds %"struct.ssdm_int<34, true>", %"struct.ssdm_int<34, true>"* %1, i32 0, i32 0
  %2 = load i34, i34* %V, align 8
  %conv = trunc i34 %2 to i2
  call void @_ZN8ssdm_intILi2ELb0EEC2EDq2_j(%"struct.ssdm_int<2, false>"* %0, i2 %conv)
  %3 = bitcast %"struct.ap_int_base<34, true>"* %op to %"struct.ssdm_int<34, true>"*
  %V2 = getelementptr inbounds %"struct.ssdm_int<34, true>", %"struct.ssdm_int<34, true>"* %3, i32 0, i32 0
  %4 = load i34, i34* %V2, align 8
  %conv3 = trunc i34 %4 to i2
  %5 = bitcast %"struct.ap_int_base<2, false>"* %this to %"struct.ssdm_int<2, false>"*
  %V4 = getelementptr inbounds %"struct.ssdm_int<2, false>", %"struct.ssdm_int<2, false>"* %5, i32 0, i32 0
  store i2 %conv3, i2* %V4, align 1
  ret void
}

; Function Attrs: alwaysinline nounwind
define linkonce_odr zeroext i1 @_ZNK11ap_int_baseILi34ELb1EE17checkOverflowCsimEibb(%"struct.ap_int_base<34, true>"* %this, i32 %_ap_w2, i1 zeroext %_ap_s2, i1 zeroext %print) #100007 comdat align 2 !fpga.function.pragma !100997 {
entry:
  ret i1 false
}

; Function Attrs: alwaysinline nounwind
define linkonce_odr void @_ZN8ssdm_intILi2ELb0EEC2EDq2_j(%"struct.ssdm_int<2, false>"* %this, i2 %o) unnamed_addr #100003 comdat align 2 !dbg !101160 !fpga.function.pragma !101161 {
entry:
  call void @llvm.dbg.value(metadata %"struct.ssdm_int<2, false>"* %this, metadata !101164, metadata !DIExpression()), !dbg !101166
  call void @llvm.dbg.value(metadata i2 %o, metadata !101167, metadata !DIExpression()), !dbg !101168
  %V = getelementptr inbounds %"struct.ssdm_int<2, false>", %"struct.ssdm_int<2, false>"* %this, i32 0, i32 0, !dbg !101169
  store i2 %o, i2* %V, align 1, !dbg !101169
  ret void, !dbg !101170
}

; Function Attrs: alwaysinline nounwind
define linkonce_odr void @_ZplILi33ELb1ELi32ELb1EEN11ap_int_baseIXT_EXT0_EE5RTypeIXT1_EXT2_EE4plusERKS1_RKS0_IXT1_EXT2_EE(%"struct.ap_int<34>"* noalias sret %agg.result, %"struct.ap_int_base<33, true>"* dereferenceable(8) %op, %"struct.ap_int_base<32, false>"* dereferenceable(4) %op2) #100003 comdat !fpga.function.pragma !100997 {
entry:
  %lhs = alloca %"struct.ap_int_base<34, true>", align 8
  %rhs = alloca %"struct.ap_int_base<34, true>", align 8
  %ret = alloca %"struct.ap_int_base<34, true>", align 8
  %0 = bitcast %"struct.ap_int_base<34, true>"* %lhs to i8*
  call void @llvm.lifetime.start.p0i8(i64 8, i8* %0) #100019
  call void @_ZN11ap_int_baseILi34ELb1EEC2ILi33ELb1EEERKS_IXT_EXT0_EE(%"struct.ap_int_base<34, true>"* %lhs, %"struct.ap_int_base<33, true>"* dereferenceable(8) %op)
  %1 = bitcast %"struct.ap_int_base<34, true>"* %rhs to i8*
  call void @llvm.lifetime.start.p0i8(i64 8, i8* %1) #100019
  call void @_ZN11ap_int_baseILi34ELb1EEC2ILi32ELb1EEERKS_IXT_EXT0_EE(%"struct.ap_int_base<34, true>"* %rhs, %"struct.ap_int_base<32, false>"* dereferenceable(4) %op2)
  %2 = bitcast %"struct.ap_int_base<34, true>"* %ret to i8*
  call void @llvm.lifetime.start.p0i8(i64 8, i8* %2) #100019
  call void @_ZN11ap_int_baseILi34ELb1EEC2Ei(%"struct.ap_int_base<34, true>"* %ret, i32 0)
  %3 = bitcast %"struct.ap_int_base<34, true>"* %lhs to %"struct.ssdm_int<34, true>"*
  %V = getelementptr inbounds %"struct.ssdm_int<34, true>", %"struct.ssdm_int<34, true>"* %3, i32 0, i32 0
  %4 = load i34, i34* %V, align 8
  %5 = bitcast %"struct.ap_int_base<34, true>"* %rhs to %"struct.ssdm_int<34, true>"*
  %V1 = getelementptr inbounds %"struct.ssdm_int<34, true>", %"struct.ssdm_int<34, true>"* %5, i32 0, i32 0
  %6 = load i34, i34* %V1, align 8
  %add = add nsw i34 %4, %6
  %7 = bitcast %"struct.ap_int_base<34, true>"* %ret to %"struct.ssdm_int<34, true>"*
  %V2 = getelementptr inbounds %"struct.ssdm_int<34, true>", %"struct.ssdm_int<34, true>"* %7, i32 0, i32 0
  store i34 %add, i34* %V2, align 8
  call void @_ZN6ap_intILi34EEC2ILi34ELb1EEERK11ap_int_baseIXT_EXT0_EE(%"struct.ap_int<34>"* %agg.result, %"struct.ap_int_base<34, true>"* dereferenceable(8) %ret)
  %8 = bitcast %"struct.ap_int_base<34, true>"* %ret to i8*
  call void @llvm.lifetime.end.p0i8(i64 8, i8* %8) #100019
  %9 = bitcast %"struct.ap_int_base<34, true>"* %rhs to i8*
  call void @llvm.lifetime.end.p0i8(i64 8, i8* %9) #100019
  %10 = bitcast %"struct.ap_int_base<34, true>"* %lhs to i8*
  call void @llvm.lifetime.end.p0i8(i64 8, i8* %10) #100019
  ret void
}

; Function Attrs: alwaysinline nounwind
define linkonce_odr void @_ZN11ap_int_baseILi34ELb1EEC2ILi32ELb1EEERKS_IXT_EXT0_EE(%"struct.ap_int_base<34, true>"* %this, %"struct.ap_int_base<32, false>"* dereferenceable(4) %op) unnamed_addr #100003 comdat align 2 !fpga.function.pragma !100997 {
entry:
  %0 = bitcast %"struct.ap_int_base<34, true>"* %this to %"struct.ssdm_int<34, true>"*
  %1 = bitcast %"struct.ap_int_base<32, false>"* %op to %"struct.ssdm_int<32, false>"*
  %V = getelementptr inbounds %"struct.ssdm_int<32, false>", %"struct.ssdm_int<32, false>"* %1, i32 0, i32 0
  %2 = load i32, i32* %V, align 4
  %conv = sext i32 %2 to i34
  call void @_ZN8ssdm_intILi34ELb1EEC2EDq34_i(%"struct.ssdm_int<34, true>"* %0, i34 %conv)
  %3 = bitcast %"struct.ap_int_base<32, false>"* %op to %"struct.ssdm_int<32, false>"*
  %V2 = getelementptr inbounds %"struct.ssdm_int<32, false>", %"struct.ssdm_int<32, false>"* %3, i32 0, i32 0
  %4 = load i32, i32* %V2, align 4
  %conv3 = sext i32 %4 to i34
  %5 = bitcast %"struct.ap_int_base<34, true>"* %this to %"struct.ssdm_int<34, true>"*
  %V4 = getelementptr inbounds %"struct.ssdm_int<34, true>", %"struct.ssdm_int<34, true>"* %5, i32 0, i32 0
  store i34 %conv3, i34* %V4, align 8
  ret void
}

; Function Attrs: alwaysinline nounwind
define linkonce_odr void @_ZplILi2ELb0ELi32ELb1EEN11ap_int_baseIXT_EXT0_EE5RTypeIXT1_EXT2_EE4plusERKS1_RKS0_IXT1_EXT2_EE(%"struct.ap_int<33>"* noalias sret %agg.result, %"struct.ap_int_base<2, false>"* dereferenceable(1) %op, %"struct.ap_int_base<32, false>"* dereferenceable(4) %op2) #100003 comdat !fpga.function.pragma !100997 {
entry:
  %lhs = alloca %"struct.ap_int_base<33, true>", align 8
  %rhs = alloca %"struct.ap_int_base<33, true>", align 8
  %ret = alloca %"struct.ap_int_base<33, true>", align 8
  %0 = bitcast %"struct.ap_int_base<33, true>"* %lhs to i8*
  call void @llvm.lifetime.start.p0i8(i64 8, i8* %0) #100019
  call void @_ZN11ap_int_baseILi33ELb1EEC2ILi2ELb0EEERKS_IXT_EXT0_EE(%"struct.ap_int_base<33, true>"* %lhs, %"struct.ap_int_base<2, false>"* dereferenceable(1) %op)
  %1 = bitcast %"struct.ap_int_base<33, true>"* %rhs to i8*
  call void @llvm.lifetime.start.p0i8(i64 8, i8* %1) #100019
  call void @_ZN11ap_int_baseILi33ELb1EEC2ILi32ELb1EEERKS_IXT_EXT0_EE(%"struct.ap_int_base<33, true>"* %rhs, %"struct.ap_int_base<32, false>"* dereferenceable(4) %op2)
  %2 = bitcast %"struct.ap_int_base<33, true>"* %ret to i8*
  call void @llvm.lifetime.start.p0i8(i64 8, i8* %2) #100019
  call void @_ZN11ap_int_baseILi33ELb1EEC2Ei(%"struct.ap_int_base<33, true>"* %ret, i32 0)
  %3 = bitcast %"struct.ap_int_base<33, true>"* %lhs to %"struct.ssdm_int<33, true>"*
  %V = getelementptr inbounds %"struct.ssdm_int<33, true>", %"struct.ssdm_int<33, true>"* %3, i32 0, i32 0
  %4 = load i33, i33* %V, align 8
  %5 = bitcast %"struct.ap_int_base<33, true>"* %rhs to %"struct.ssdm_int<33, true>"*
  %V1 = getelementptr inbounds %"struct.ssdm_int<33, true>", %"struct.ssdm_int<33, true>"* %5, i32 0, i32 0
  %6 = load i33, i33* %V1, align 8
  %add = add nsw i33 %4, %6
  %7 = bitcast %"struct.ap_int_base<33, true>"* %ret to %"struct.ssdm_int<33, true>"*
  %V2 = getelementptr inbounds %"struct.ssdm_int<33, true>", %"struct.ssdm_int<33, true>"* %7, i32 0, i32 0
  store i33 %add, i33* %V2, align 8
  call void @_ZN6ap_intILi33EEC2ILi33ELb1EEERK11ap_int_baseIXT_EXT0_EE(%"struct.ap_int<33>"* %agg.result, %"struct.ap_int_base<33, true>"* dereferenceable(8) %ret)
  %8 = bitcast %"struct.ap_int_base<33, true>"* %ret to i8*
  call void @llvm.lifetime.end.p0i8(i64 8, i8* %8) #100019
  %9 = bitcast %"struct.ap_int_base<33, true>"* %rhs to i8*
  call void @llvm.lifetime.end.p0i8(i64 8, i8* %9) #100019
  %10 = bitcast %"struct.ap_int_base<33, true>"* %lhs to i8*
  call void @llvm.lifetime.end.p0i8(i64 8, i8* %10) #100019
  ret void
}

; Function Attrs: alwaysinline nounwind
define linkonce_odr void @_ZN11ap_int_baseILi33ELb1EEC2ILi2ELb0EEERKS_IXT_EXT0_EE(%"struct.ap_int_base<33, true>"* %this, %"struct.ap_int_base<2, false>"* dereferenceable(1) %op) unnamed_addr #100003 comdat align 2 !fpga.function.pragma !100997 {
entry:
  %0 = bitcast %"struct.ap_int_base<33, true>"* %this to %"struct.ssdm_int<33, true>"*
  %1 = bitcast %"struct.ap_int_base<2, false>"* %op to %"struct.ssdm_int<2, false>"*
  %V = getelementptr inbounds %"struct.ssdm_int<2, false>", %"struct.ssdm_int<2, false>"* %1, i32 0, i32 0
  %2 = load i2, i2* %V, align 1
  %conv = zext i2 %2 to i33
  call void @_ZN8ssdm_intILi33ELb1EEC2EDq33_i(%"struct.ssdm_int<33, true>"* %0, i33 %conv)
  %3 = bitcast %"struct.ap_int_base<2, false>"* %op to %"struct.ssdm_int<2, false>"*
  %V2 = getelementptr inbounds %"struct.ssdm_int<2, false>", %"struct.ssdm_int<2, false>"* %3, i32 0, i32 0
  %4 = load i2, i2* %V2, align 1
  %conv3 = zext i2 %4 to i33
  %5 = bitcast %"struct.ap_int_base<33, true>"* %this to %"struct.ssdm_int<33, true>"*
  %V4 = getelementptr inbounds %"struct.ssdm_int<33, true>", %"struct.ssdm_int<33, true>"* %5, i32 0, i32 0
  store i33 %conv3, i33* %V4, align 8
  ret void
}

; Function Attrs: alwaysinline nounwind
define linkonce_odr void @_ZN11ap_int_baseILi2ELb0EEC2ILi14ELb0EEERK12ap_range_refIXT_EXT0_EE(%"struct.ap_int_base<2, false>"* %this, %"struct.ap_range_ref<14, false>"* dereferenceable(16) %ref) unnamed_addr #100003 comdat align 2 !fpga.function.pragma !100997 {
entry:
  %ref.tmp = alloca %"struct.ap_int_base<14, false>", align 2
  %0 = bitcast %"struct.ap_int_base<2, false>"* %this to %"struct.ssdm_int<2, false>"*
  call void @_ZN8ssdm_intILi2ELb0EEC2Ev(%"struct.ssdm_int<2, false>"* %0)
  %1 = bitcast %"struct.ap_int_base<14, false>"* %ref.tmp to i8*
  call void @llvm.lifetime.start.p0i8(i64 2, i8* %1) #100019
  call void @_ZNK12ap_range_refILi14ELb0EE3getEv(%"struct.ap_int_base<14, false>"* sret %ref.tmp, %"struct.ap_range_ref<14, false>"* %ref)
  %2 = bitcast %"struct.ap_int_base<14, false>"* %ref.tmp to %"struct.ssdm_int<14, false>"*
  %V = getelementptr inbounds %"struct.ssdm_int<14, false>", %"struct.ssdm_int<14, false>"* %2, i32 0, i32 0
  %3 = load i14, i14* %V, align 2
  %conv = trunc i14 %3 to i2
  %4 = bitcast %"struct.ap_int_base<2, false>"* %this to %"struct.ssdm_int<2, false>"*
  %V2 = getelementptr inbounds %"struct.ssdm_int<2, false>", %"struct.ssdm_int<2, false>"* %4, i32 0, i32 0
  store i2 %conv, i2* %V2, align 1
  %5 = bitcast %"struct.ap_int_base<14, false>"* %ref.tmp to i8*
  call void @llvm.lifetime.end.p0i8(i64 2, i8* %5) #100019
  ret void
}

; Function Attrs: alwaysinline nounwind
define linkonce_odr void @_ZN8ssdm_intILi2ELb0EEC2Ev(%"struct.ssdm_int<2, false>"* %this) unnamed_addr #100003 comdat align 2 !dbg !101171 !fpga.function.pragma !101172 {
entry:
  call void @llvm.dbg.value(metadata %"struct.ssdm_int<2, false>"* %this, metadata !101175, metadata !DIExpression()), !dbg !101176
  ret void, !dbg !101177
}

; Function Attrs: alwaysinline nounwind
define linkonce_odr void @_ZN11ap_int_baseILi14ELb0EEC2ILi11ELb0EEERKS_IXT_EXT0_EE(%"struct.ap_int_base<14, false>"* %this, %"struct.ap_int_base<11, false>"* dereferenceable(2) %op) unnamed_addr #100003 comdat align 2 !fpga.function.pragma !100997 {
entry:
  %0 = bitcast %"struct.ap_int_base<14, false>"* %this to %"struct.ssdm_int<14, false>"*
  %1 = bitcast %"struct.ap_int_base<11, false>"* %op to %"struct.ssdm_int<11, false>"*
  %V = getelementptr inbounds %"struct.ssdm_int<11, false>", %"struct.ssdm_int<11, false>"* %1, i32 0, i32 0
  %2 = load i11, i11* %V, align 2
  %conv = zext i11 %2 to i14
  call void @_ZN8ssdm_intILi14ELb0EEC2EDq14_j(%"struct.ssdm_int<14, false>"* %0, i14 %conv)
  %3 = bitcast %"struct.ap_int_base<11, false>"* %op to %"struct.ssdm_int<11, false>"*
  %V2 = getelementptr inbounds %"struct.ssdm_int<11, false>", %"struct.ssdm_int<11, false>"* %3, i32 0, i32 0
  %4 = load i11, i11* %V2, align 2
  %conv3 = zext i11 %4 to i14
  %5 = bitcast %"struct.ap_int_base<14, false>"* %this to %"struct.ssdm_int<14, false>"*
  %V4 = getelementptr inbounds %"struct.ssdm_int<14, false>", %"struct.ssdm_int<14, false>"* %5, i32 0, i32 0
  store i14 %conv3, i14* %V4, align 2
  ret void
}

; Function Attrs: alwaysinline nounwind
define linkonce_odr zeroext i1 @_ZNK11ap_int_baseILi11ELb0EE17checkOverflowCsimEibb(%"struct.ap_int_base<11, false>"* %this, i32 %_ap_w2, i1 zeroext %_ap_s2, i1 zeroext %print) #100007 comdat align 2 !fpga.function.pragma !100997 {
entry:
  ret i1 false
}

; Function Attrs: alwaysinline nounwind
define linkonce_odr void @_ZN8ssdm_intILi14ELb0EEC2EDq14_j(%"struct.ssdm_int<14, false>"* %this, i14 %o) unnamed_addr #100003 comdat align 2 !dbg !101178 !fpga.function.pragma !101179 {
entry:
  call void @llvm.dbg.value(metadata %"struct.ssdm_int<14, false>"* %this, metadata !101182, metadata !DIExpression()), !dbg !101183
  call void @llvm.dbg.value(metadata i14 %o, metadata !101184, metadata !DIExpression()), !dbg !101185
  %V = getelementptr inbounds %"struct.ssdm_int<14, false>", %"struct.ssdm_int<14, false>"* %this, i32 0, i32 0, !dbg !101186
  store i14 %o, i14* %V, align 2, !dbg !101186
  ret void, !dbg !101187
}

; Function Attrs: alwaysinline nounwind
define linkonce_odr void @_ZN11ap_int_baseILi11ELb0EEC2Ei(%"struct.ap_int_base<11, false>"* %this, i32 %op) unnamed_addr #100003 comdat align 2 !fpga.function.pragma !100997 {
entry:
  %0 = bitcast %"struct.ap_int_base<11, false>"* %this to %"struct.ssdm_int<11, false>"*
  %conv = trunc i32 %op to i11
  call void @_ZN8ssdm_intILi11ELb0EEC2EDq11_j(%"struct.ssdm_int<11, false>"* %0, i11 %conv)
  %conv2 = trunc i32 %op to i11
  %1 = bitcast %"struct.ap_int_base<11, false>"* %this to %"struct.ssdm_int<11, false>"*
  %V = getelementptr inbounds %"struct.ssdm_int<11, false>", %"struct.ssdm_int<11, false>"* %1, i32 0, i32 0
  store i11 %conv2, i11* %V, align 2
  ret void
}

; Function Attrs: alwaysinline nounwind
define linkonce_odr void @_ZN7ap_uintILi11EEC2ILi11ELb0EEERK11ap_int_baseIXT_EXT0_EE(%"struct.ap_uint<11>"* %this, %"struct.ap_int_base<11, false>"* dereferenceable(2) %op) unnamed_addr #100003 comdat align 2 !fpga.function.pragma !100997 {
entry:
  %0 = bitcast %"struct.ap_uint<11>"* %this to %"struct.ap_int_base<11, false>"*
  %1 = load %"struct.ap_int_base<11, false>", %"struct.ap_int_base<11, false>"* %op, align 2
  store %"struct.ap_int_base<11, false>" %1, %"struct.ap_int_base<11, false>"* %0, align 2
  ret void
}

; Function Attrs: alwaysinline nounwind
define linkonce_odr void @_ZN8ssdm_intILi11ELb0EEC2EDq11_j(%"struct.ssdm_int<11, false>"* %this, i11 %o) unnamed_addr #100003 comdat align 2 !dbg !101188 !fpga.function.pragma !101189 {
entry:
  call void @llvm.dbg.value(metadata %"struct.ssdm_int<11, false>"* %this, metadata !101192, metadata !DIExpression()), !dbg !101194
  call void @llvm.dbg.value(metadata i11 %o, metadata !101195, metadata !DIExpression()), !dbg !101196
  %V = getelementptr inbounds %"struct.ssdm_int<11, false>", %"struct.ssdm_int<11, false>"* %this, i32 0, i32 0, !dbg !101197
  store i11 %o, i11* %V, align 2, !dbg !101197
  ret void, !dbg !101198
}

; Function Attrs: alwaysinline nounwind
define linkonce_odr void @_ZN11ap_int_baseILi14ELb0EEC2ILi9ELb0EEERKS_IXT_EXT0_EE(%"struct.ap_int_base<14, false>"* %this, %"struct.ap_int_base<9, false>"* dereferenceable(2) %op) unnamed_addr #100003 comdat align 2 !fpga.function.pragma !100997 {
entry:
  %0 = bitcast %"struct.ap_int_base<14, false>"* %this to %"struct.ssdm_int<14, false>"*
  %1 = bitcast %"struct.ap_int_base<9, false>"* %op to %"struct.ssdm_int<9, false>"*
  %V = getelementptr inbounds %"struct.ssdm_int<9, false>", %"struct.ssdm_int<9, false>"* %1, i32 0, i32 0
  %2 = load i9, i9* %V, align 2
  %conv = zext i9 %2 to i14
  call void @_ZN8ssdm_intILi14ELb0EEC2EDq14_j(%"struct.ssdm_int<14, false>"* %0, i14 %conv)
  %3 = bitcast %"struct.ap_int_base<9, false>"* %op to %"struct.ssdm_int<9, false>"*
  %V2 = getelementptr inbounds %"struct.ssdm_int<9, false>", %"struct.ssdm_int<9, false>"* %3, i32 0, i32 0
  %4 = load i9, i9* %V2, align 2
  %conv3 = zext i9 %4 to i14
  %5 = bitcast %"struct.ap_int_base<14, false>"* %this to %"struct.ssdm_int<14, false>"*
  %V4 = getelementptr inbounds %"struct.ssdm_int<14, false>", %"struct.ssdm_int<14, false>"* %5, i32 0, i32 0
  store i14 %conv3, i14* %V4, align 2
  ret void
}

; Function Attrs: alwaysinline nounwind
define linkonce_odr zeroext i1 @_ZNK11ap_int_baseILi9ELb0EE17checkOverflowCsimEibb(%"struct.ap_int_base<9, false>"* %this, i32 %_ap_w2, i1 zeroext %_ap_s2, i1 zeroext %print) #100007 comdat align 2 !fpga.function.pragma !100997 {
entry:
  ret i1 false
}

; Function Attrs: alwaysinline nounwind
define linkonce_odr void @_ZN11ap_int_baseILi9ELb0EEC2Ei(%"struct.ap_int_base<9, false>"* %this, i32 %op) unnamed_addr #100003 comdat align 2 !fpga.function.pragma !100997 {
entry:
  %0 = bitcast %"struct.ap_int_base<9, false>"* %this to %"struct.ssdm_int<9, false>"*
  %conv = trunc i32 %op to i9
  call void @_ZN8ssdm_intILi9ELb0EEC2EDq9_j(%"struct.ssdm_int<9, false>"* %0, i9 %conv)
  %conv2 = trunc i32 %op to i9
  %1 = bitcast %"struct.ap_int_base<9, false>"* %this to %"struct.ssdm_int<9, false>"*
  %V = getelementptr inbounds %"struct.ssdm_int<9, false>", %"struct.ssdm_int<9, false>"* %1, i32 0, i32 0
  store i9 %conv2, i9* %V, align 2
  ret void
}

; Function Attrs: alwaysinline nounwind
define linkonce_odr void @_ZN7ap_uintILi9EEC2ILi9ELb0EEERK11ap_int_baseIXT_EXT0_EE(%"struct.ap_uint<9>"* %this, %"struct.ap_int_base<9, false>"* dereferenceable(2) %op) unnamed_addr #100003 comdat align 2 !fpga.function.pragma !100997 {
entry:
  %0 = bitcast %"struct.ap_uint<9>"* %this to %"struct.ap_int_base<9, false>"*
  %1 = load %"struct.ap_int_base<9, false>", %"struct.ap_int_base<9, false>"* %op, align 2
  store %"struct.ap_int_base<9, false>" %1, %"struct.ap_int_base<9, false>"* %0, align 2
  ret void
}

; Function Attrs: alwaysinline nounwind
define linkonce_odr void @_ZN8ssdm_intILi9ELb0EEC2EDq9_j(%"struct.ssdm_int<9, false>"* %this, i9 %o) unnamed_addr #100003 comdat align 2 !dbg !101199 !fpga.function.pragma !101200 {
entry:
  call void @llvm.dbg.value(metadata %"struct.ssdm_int<9, false>"* %this, metadata !101203, metadata !DIExpression()), !dbg !101205
  call void @llvm.dbg.value(metadata i9 %o, metadata !101206, metadata !DIExpression()), !dbg !101207
  %V = getelementptr inbounds %"struct.ssdm_int<9, false>", %"struct.ssdm_int<9, false>"* %this, i32 0, i32 0, !dbg !101208
  store i9 %o, i9* %V, align 2, !dbg !101208
  ret void, !dbg !101209
}

; Function Attrs: alwaysinline nounwind
define linkonce_odr void @_ZN11ap_int_baseILi6ELb0EEC2ILi3ES_ILi3ELb0EELi3ES2_EERK13ap_concat_refIXT_ET0_XT1_ET2_E(%"struct.ap_int_base<6, false>"* %this, %"struct.ap_concat_ref<3, ap_int_base<3, false>, 3, ap_int_base<3, false> >"* dereferenceable(16) %ref) unnamed_addr #100003 comdat align 2 !fpga.function.pragma !100997 {
entry:
  %tmp = alloca %"struct.ap_int_base<6, false>", align 1
  %0 = bitcast %"struct.ap_int_base<6, false>"* %this to %"struct.ssdm_int<6, false>"*
  call void @_ZN8ssdm_intILi6ELb0EEC2Ev(%"struct.ssdm_int<6, false>"* %0)
  %1 = bitcast %"struct.ap_int_base<6, false>"* %tmp to i8*
  call void @llvm.lifetime.start.p0i8(i64 1, i8* %1) #100019
  call void @_ZNK13ap_concat_refILi3E11ap_int_baseILi3ELb0EELi3ES1_E3getEv(%"struct.ap_int_base<6, false>"* sret %tmp, %"struct.ap_concat_ref<3, ap_int_base<3, false>, 3, ap_int_base<3, false> >"* %ref)
  %2 = bitcast %"struct.ap_int_base<6, false>"* %tmp to %"struct.ssdm_int<6, false>"*
  %V = getelementptr inbounds %"struct.ssdm_int<6, false>", %"struct.ssdm_int<6, false>"* %2, i32 0, i32 0
  %3 = load i6, i6* %V, align 1
  %4 = bitcast %"struct.ap_int_base<6, false>"* %this to %"struct.ssdm_int<6, false>"*
  %V2 = getelementptr inbounds %"struct.ssdm_int<6, false>", %"struct.ssdm_int<6, false>"* %4, i32 0, i32 0
  store i6 %3, i6* %V2, align 1
  %5 = bitcast %"struct.ap_int_base<6, false>"* %tmp to i8*
  call void @llvm.lifetime.end.p0i8(i64 1, i8* %5) #100019
  ret void
}

; Function Attrs: alwaysinline nounwind
define linkonce_odr void @_ZN8ssdm_intILi6ELb0EEC2Ev(%"struct.ssdm_int<6, false>"* %this) unnamed_addr #100003 comdat align 2 !dbg !101210 !fpga.function.pragma !101211 {
entry:
  call void @llvm.dbg.value(metadata %"struct.ssdm_int<6, false>"* %this, metadata !101214, metadata !DIExpression()), !dbg !101216
  ret void, !dbg !101217
}

; Function Attrs: alwaysinline nounwind
define linkonce_odr void @_ZNK13ap_concat_refILi3E11ap_int_baseILi3ELb0EELi3ES1_E3getEv(%"struct.ap_int_base<6, false>"* noalias sret %agg.result, %"struct.ap_concat_ref<3, ap_int_base<3, false>, 3, ap_int_base<3, false> >"* %this) #100008 comdat align 2 !fpga.function.pragma !100997 {
entry:
  %v2 = alloca %"struct.ap_int_base<3, false>", align 1
  %v1 = alloca %"struct.ap_int_base<3, false>", align 1
  call void @_ZN11ap_int_baseILi6ELb0EEC2Ei(%"struct.ap_int_base<6, false>"* %agg.result, i32 0)
  %mbv1 = getelementptr inbounds %"struct.ap_concat_ref<3, ap_int_base<3, false>, 3, ap_int_base<3, false> >", %"struct.ap_concat_ref<3, ap_int_base<3, false>, 3, ap_int_base<3, false> >"* %this, i32 0, i32 0
  %0 = load %"struct.ap_int_base<3, false>"*, %"struct.ap_int_base<3, false>"** %mbv1, align 8
  %call = call i32 @_ZNK11ap_int_baseILi3ELb0EE6lengthEv(%"struct.ap_int_base<3, false>"* %0)
  %mbv2 = getelementptr inbounds %"struct.ap_concat_ref<3, ap_int_base<3, false>, 3, ap_int_base<3, false> >", %"struct.ap_concat_ref<3, ap_int_base<3, false>, 3, ap_int_base<3, false> >"* %this, i32 0, i32 1
  %1 = load %"struct.ap_int_base<3, false>"*, %"struct.ap_int_base<3, false>"** %mbv2, align 8
  %call2 = call i32 @_ZNK11ap_int_baseILi3ELb0EE6lengthEv(%"struct.ap_int_base<3, false>"* %1)
  %2 = bitcast %"struct.ap_int_base<3, false>"* %v2 to i8*
  call void @llvm.lifetime.start.p0i8(i64 1, i8* %2) #100019
  %mbv23 = getelementptr inbounds %"struct.ap_concat_ref<3, ap_int_base<3, false>, 3, ap_int_base<3, false> >", %"struct.ap_concat_ref<3, ap_int_base<3, false>, 3, ap_int_base<3, false> >"* %this, i32 0, i32 1
  %3 = load %"struct.ap_int_base<3, false>"*, %"struct.ap_int_base<3, false>"** %mbv23, align 8
  %4 = load %"struct.ap_int_base<3, false>", %"struct.ap_int_base<3, false>"* %3, align 1
  store %"struct.ap_int_base<3, false>" %4, %"struct.ap_int_base<3, false>"* %v2, align 1
  %5 = bitcast %"struct.ap_int_base<3, false>"* %v1 to i8*
  call void @llvm.lifetime.start.p0i8(i64 1, i8* %5) #100019
  %mbv14 = getelementptr inbounds %"struct.ap_concat_ref<3, ap_int_base<3, false>, 3, ap_int_base<3, false> >", %"struct.ap_concat_ref<3, ap_int_base<3, false>, 3, ap_int_base<3, false> >"* %this, i32 0, i32 0
  %6 = load %"struct.ap_int_base<3, false>"*, %"struct.ap_int_base<3, false>"** %mbv14, align 8
  %7 = load %"struct.ap_int_base<3, false>", %"struct.ap_int_base<3, false>"* %6, align 1
  store %"struct.ap_int_base<3, false>" %7, %"struct.ap_int_base<3, false>"* %v1, align 1
  %8 = bitcast %"struct.ap_int_base<6, false>"* %agg.result to %"struct.ssdm_int<6, false>"*
  %V = getelementptr inbounds %"struct.ssdm_int<6, false>", %"struct.ssdm_int<6, false>"* %8, i32 0, i32 0
  %9 = load i6, i6* %V, align 1
  %10 = bitcast %"struct.ap_int_base<3, false>"* %v2 to %"struct.ssdm_int<3, false>"*
  %V5 = getelementptr inbounds %"struct.ssdm_int<3, false>", %"struct.ssdm_int<3, false>"* %10, i32 0, i32 0
  %11 = load i3, i3* %V5, align 1
  %sub = sub nsw i32 %call2, 1
  %part_set = call i6 @llvm.fpga.legacy.part.set.i6.i3(i6 %9, i3 %11, i32 0, i32 %sub)
  %12 = bitcast %"struct.ap_int_base<6, false>"* %agg.result to %"struct.ssdm_int<6, false>"*
  %V6 = getelementptr inbounds %"struct.ssdm_int<6, false>", %"struct.ssdm_int<6, false>"* %12, i32 0, i32 0
  store i6 %part_set, i6* %V6, align 1
  %13 = bitcast %"struct.ap_int_base<6, false>"* %agg.result to %"struct.ssdm_int<6, false>"*
  %V9 = getelementptr inbounds %"struct.ssdm_int<6, false>", %"struct.ssdm_int<6, false>"* %13, i32 0, i32 0
  %14 = load i6, i6* %V9, align 1
  %15 = bitcast %"struct.ap_int_base<3, false>"* %v1 to %"struct.ssdm_int<3, false>"*
  %V11 = getelementptr inbounds %"struct.ssdm_int<3, false>", %"struct.ssdm_int<3, false>"* %15, i32 0, i32 0
  %16 = load i3, i3* %V11, align 1
  %add = add nsw i32 %call, %call2
  %sub12 = sub nsw i32 %add, 1
  %part_set13 = call i6 @llvm.fpga.legacy.part.set.i6.i3(i6 %14, i3 %16, i32 %call2, i32 %sub12)
  %17 = bitcast %"struct.ap_int_base<6, false>"* %agg.result to %"struct.ssdm_int<6, false>"*
  %V15 = getelementptr inbounds %"struct.ssdm_int<6, false>", %"struct.ssdm_int<6, false>"* %17, i32 0, i32 0
  store i6 %part_set13, i6* %V15, align 1
  %18 = bitcast %"struct.ap_int_base<3, false>"* %v1 to i8*
  call void @llvm.lifetime.end.p0i8(i64 1, i8* %18) #100019
  %19 = bitcast %"struct.ap_int_base<3, false>"* %v2 to i8*
  call void @llvm.lifetime.end.p0i8(i64 1, i8* %19) #100019
  ret void
}

; Function Attrs: alwaysinline nounwind
define linkonce_odr void @_ZN11ap_int_baseILi6ELb0EEC2Ei(%"struct.ap_int_base<6, false>"* %this, i32 %op) unnamed_addr #100003 comdat align 2 !fpga.function.pragma !100997 {
entry:
  %0 = bitcast %"struct.ap_int_base<6, false>"* %this to %"struct.ssdm_int<6, false>"*
  %conv = trunc i32 %op to i6
  call void @_ZN8ssdm_intILi6ELb0EEC2EDq6_j(%"struct.ssdm_int<6, false>"* %0, i6 %conv)
  %conv2 = trunc i32 %op to i6
  %1 = bitcast %"struct.ap_int_base<6, false>"* %this to %"struct.ssdm_int<6, false>"*
  %V = getelementptr inbounds %"struct.ssdm_int<6, false>", %"struct.ssdm_int<6, false>"* %1, i32 0, i32 0
  store i6 %conv2, i6* %V, align 1
  ret void
}

; Function Attrs: alwaysinline nounwind
define linkonce_odr i32 @_ZNK11ap_int_baseILi3ELb0EE6lengthEv(%"struct.ap_int_base<3, false>"* %this) #100010 comdat align 2 !fpga.function.pragma !100997 {
entry:
  ret i32 3
}

; Function Attrs: nounwind readnone
declare i6 @llvm.fpga.legacy.part.set.i6.i3(i6, i3, i32, i32) #100009

; Function Attrs: alwaysinline nounwind
define linkonce_odr void @_ZN8ssdm_intILi6ELb0EEC2EDq6_j(%"struct.ssdm_int<6, false>"* %this, i6 %o) unnamed_addr #100003 comdat align 2 !dbg !101218 !fpga.function.pragma !101219 {
entry:
  call void @llvm.dbg.value(metadata %"struct.ssdm_int<6, false>"* %this, metadata !101222, metadata !DIExpression()), !dbg !101223
  call void @llvm.dbg.value(metadata i6 %o, metadata !101224, metadata !DIExpression()), !dbg !101225
  %V = getelementptr inbounds %"struct.ssdm_int<6, false>", %"struct.ssdm_int<6, false>"* %this, i32 0, i32 0, !dbg !101226
  store i6 %o, i6* %V, align 1, !dbg !101226
  ret void, !dbg !101227
}

; Function Attrs: alwaysinline nounwind
define linkonce_odr void @_ZN13ap_concat_refILi3E11ap_int_baseILi3ELb0EELi3ES1_EC2ERS1_S3_(%"struct.ap_concat_ref<3, ap_int_base<3, false>, 3, ap_int_base<3, false> >"* %this, %"struct.ap_int_base<3, false>"* dereferenceable(1) %bv1, %"struct.ap_int_base<3, false>"* dereferenceable(1) %bv2) unnamed_addr #100003 comdat align 2 !fpga.function.pragma !100997 {
entry:
  %mbv1 = getelementptr inbounds %"struct.ap_concat_ref<3, ap_int_base<3, false>, 3, ap_int_base<3, false> >", %"struct.ap_concat_ref<3, ap_int_base<3, false>, 3, ap_int_base<3, false> >"* %this, i32 0, i32 0
  store %"struct.ap_int_base<3, false>"* %bv1, %"struct.ap_int_base<3, false>"** %mbv1, align 8
  %mbv2 = getelementptr inbounds %"struct.ap_concat_ref<3, ap_int_base<3, false>, 3, ap_int_base<3, false> >", %"struct.ap_concat_ref<3, ap_int_base<3, false>, 3, ap_int_base<3, false> >"* %this, i32 0, i32 1
  store %"struct.ap_int_base<3, false>"* %bv2, %"struct.ap_int_base<3, false>"** %mbv2, align 8
  ret void
}

; Function Attrs: alwaysinline nounwind
define linkonce_odr void @_ZN11ap_int_baseILi12ELb0EEC2ILi14ELb0EEERK12ap_range_refIXT_EXT0_EE(%"struct.ap_int_base<12, false>"* %this, %"struct.ap_range_ref<14, false>"* dereferenceable(16) %ref) unnamed_addr #100003 comdat align 2 !fpga.function.pragma !100997 {
entry:
  %ref.tmp = alloca %"struct.ap_int_base<14, false>", align 2
  %0 = bitcast %"struct.ap_int_base<12, false>"* %this to %"struct.ssdm_int<12, false>"*
  call void @_ZN8ssdm_intILi12ELb0EEC2Ev(%"struct.ssdm_int<12, false>"* %0)
  %1 = bitcast %"struct.ap_int_base<14, false>"* %ref.tmp to i8*
  call void @llvm.lifetime.start.p0i8(i64 2, i8* %1) #100019
  call void @_ZNK12ap_range_refILi14ELb0EE3getEv(%"struct.ap_int_base<14, false>"* sret %ref.tmp, %"struct.ap_range_ref<14, false>"* %ref)
  %2 = bitcast %"struct.ap_int_base<14, false>"* %ref.tmp to %"struct.ssdm_int<14, false>"*
  %V = getelementptr inbounds %"struct.ssdm_int<14, false>", %"struct.ssdm_int<14, false>"* %2, i32 0, i32 0
  %3 = load i14, i14* %V, align 2
  %conv = trunc i14 %3 to i12
  %4 = bitcast %"struct.ap_int_base<12, false>"* %this to %"struct.ssdm_int<12, false>"*
  %V2 = getelementptr inbounds %"struct.ssdm_int<12, false>", %"struct.ssdm_int<12, false>"* %4, i32 0, i32 0
  store i12 %conv, i12* %V2, align 2
  %5 = bitcast %"struct.ap_int_base<14, false>"* %ref.tmp to i8*
  call void @llvm.lifetime.end.p0i8(i64 2, i8* %5) #100019
  ret void
}

; Function Attrs: alwaysinline nounwind
define linkonce_odr void @_ZN8ssdm_intILi12ELb0EEC2Ev(%"struct.ssdm_int<12, false>"* %this) unnamed_addr #100003 comdat align 2 !dbg !101228 !fpga.function.pragma !101229 {
entry:
  call void @llvm.dbg.value(metadata %"struct.ssdm_int<12, false>"* %this, metadata !101232, metadata !DIExpression()), !dbg !101234
  ret void, !dbg !101235
}

; Function Attrs: alwaysinline nounwind
define linkonce_odr void @_ZN12ap_range_refILi14ELb0EEC2EP11ap_int_baseILi14ELb0EEii(%"struct.ap_range_ref<14, false>"* %this, %"struct.ap_int_base<14, false>"* %bv, i32 %h, i32 %l) unnamed_addr #100003 comdat align 2 !fpga.function.pragma !100997 {
entry:
  %d_bv = getelementptr inbounds %"struct.ap_range_ref<14, false>", %"struct.ap_range_ref<14, false>"* %this, i32 0, i32 0
  store %"struct.ap_int_base<14, false>"* %bv, %"struct.ap_int_base<14, false>"** %d_bv, align 8
  %l_index = getelementptr inbounds %"struct.ap_range_ref<14, false>", %"struct.ap_range_ref<14, false>"* %this, i32 0, i32 1
  store i32 %l, i32* %l_index, align 8
  %h_index = getelementptr inbounds %"struct.ap_range_ref<14, false>", %"struct.ap_range_ref<14, false>"* %this, i32 0, i32 2
  store i32 %h, i32* %h_index, align 4
  ret void
}

; Function Attrs: alwaysinline nounwind
define linkonce_odr void @_ZN11ap_int_baseILi14ELb0EEC2ILi11ES_ILi11ELb0EELi3ES_ILi3ELb0EEEERK13ap_concat_refIXT_ET0_XT1_ET2_E(%"struct.ap_int_base<14, false>"* %this, %"struct.ap_concat_ref<11, ap_int_base<11, false>, 3, ap_int_base<3, false> >"* dereferenceable(16) %ref) unnamed_addr #100003 comdat align 2 !fpga.function.pragma !100997 {
entry:
  %tmp = alloca %"struct.ap_int_base<14, false>", align 2
  %0 = bitcast %"struct.ap_int_base<14, false>"* %this to %"struct.ssdm_int<14, false>"*
  call void @_ZN8ssdm_intILi14ELb0EEC2Ev(%"struct.ssdm_int<14, false>"* %0)
  %1 = bitcast %"struct.ap_int_base<14, false>"* %tmp to i8*
  call void @llvm.lifetime.start.p0i8(i64 2, i8* %1) #100019
  call void @_ZNK13ap_concat_refILi11E11ap_int_baseILi11ELb0EELi3ES0_ILi3ELb0EEE3getEv(%"struct.ap_int_base<14, false>"* sret %tmp, %"struct.ap_concat_ref<11, ap_int_base<11, false>, 3, ap_int_base<3, false> >"* %ref)
  %2 = bitcast %"struct.ap_int_base<14, false>"* %tmp to %"struct.ssdm_int<14, false>"*
  %V = getelementptr inbounds %"struct.ssdm_int<14, false>", %"struct.ssdm_int<14, false>"* %2, i32 0, i32 0
  %3 = load i14, i14* %V, align 2
  %4 = bitcast %"struct.ap_int_base<14, false>"* %this to %"struct.ssdm_int<14, false>"*
  %V2 = getelementptr inbounds %"struct.ssdm_int<14, false>", %"struct.ssdm_int<14, false>"* %4, i32 0, i32 0
  store i14 %3, i14* %V2, align 2
  %5 = bitcast %"struct.ap_int_base<14, false>"* %tmp to i8*
  call void @llvm.lifetime.end.p0i8(i64 2, i8* %5) #100019
  ret void
}

; Function Attrs: alwaysinline nounwind
define linkonce_odr void @_ZNK13ap_concat_refILi11E11ap_int_baseILi11ELb0EELi3ES0_ILi3ELb0EEE3getEv(%"struct.ap_int_base<14, false>"* noalias sret %agg.result, %"struct.ap_concat_ref<11, ap_int_base<11, false>, 3, ap_int_base<3, false> >"* %this) #100008 comdat align 2 !fpga.function.pragma !100997 {
entry:
  %v2 = alloca %"struct.ap_int_base<3, false>", align 1
  %v1 = alloca %"struct.ap_int_base<11, false>", align 2
  call void @_ZN11ap_int_baseILi14ELb0EEC2Ei(%"struct.ap_int_base<14, false>"* %agg.result, i32 0)
  %mbv1 = getelementptr inbounds %"struct.ap_concat_ref<11, ap_int_base<11, false>, 3, ap_int_base<3, false> >", %"struct.ap_concat_ref<11, ap_int_base<11, false>, 3, ap_int_base<3, false> >"* %this, i32 0, i32 0
  %0 = load %"struct.ap_int_base<11, false>"*, %"struct.ap_int_base<11, false>"** %mbv1, align 8
  %call = call i32 @_ZNK11ap_int_baseILi11ELb0EE6lengthEv(%"struct.ap_int_base<11, false>"* %0)
  %mbv2 = getelementptr inbounds %"struct.ap_concat_ref<11, ap_int_base<11, false>, 3, ap_int_base<3, false> >", %"struct.ap_concat_ref<11, ap_int_base<11, false>, 3, ap_int_base<3, false> >"* %this, i32 0, i32 1
  %1 = load %"struct.ap_int_base<3, false>"*, %"struct.ap_int_base<3, false>"** %mbv2, align 8
  %call2 = call i32 @_ZNK11ap_int_baseILi3ELb0EE6lengthEv(%"struct.ap_int_base<3, false>"* %1)
  %2 = bitcast %"struct.ap_int_base<3, false>"* %v2 to i8*
  call void @llvm.lifetime.start.p0i8(i64 1, i8* %2) #100019
  %mbv23 = getelementptr inbounds %"struct.ap_concat_ref<11, ap_int_base<11, false>, 3, ap_int_base<3, false> >", %"struct.ap_concat_ref<11, ap_int_base<11, false>, 3, ap_int_base<3, false> >"* %this, i32 0, i32 1
  %3 = load %"struct.ap_int_base<3, false>"*, %"struct.ap_int_base<3, false>"** %mbv23, align 8
  %4 = load %"struct.ap_int_base<3, false>", %"struct.ap_int_base<3, false>"* %3, align 1
  store %"struct.ap_int_base<3, false>" %4, %"struct.ap_int_base<3, false>"* %v2, align 1
  %5 = bitcast %"struct.ap_int_base<11, false>"* %v1 to i8*
  call void @llvm.lifetime.start.p0i8(i64 2, i8* %5) #100019
  %mbv14 = getelementptr inbounds %"struct.ap_concat_ref<11, ap_int_base<11, false>, 3, ap_int_base<3, false> >", %"struct.ap_concat_ref<11, ap_int_base<11, false>, 3, ap_int_base<3, false> >"* %this, i32 0, i32 0
  %6 = load %"struct.ap_int_base<11, false>"*, %"struct.ap_int_base<11, false>"** %mbv14, align 8
  %7 = load %"struct.ap_int_base<11, false>", %"struct.ap_int_base<11, false>"* %6, align 2
  store %"struct.ap_int_base<11, false>" %7, %"struct.ap_int_base<11, false>"* %v1, align 2
  %8 = bitcast %"struct.ap_int_base<14, false>"* %agg.result to %"struct.ssdm_int<14, false>"*
  %V = getelementptr inbounds %"struct.ssdm_int<14, false>", %"struct.ssdm_int<14, false>"* %8, i32 0, i32 0
  %9 = load i14, i14* %V, align 2
  %10 = bitcast %"struct.ap_int_base<3, false>"* %v2 to %"struct.ssdm_int<3, false>"*
  %V5 = getelementptr inbounds %"struct.ssdm_int<3, false>", %"struct.ssdm_int<3, false>"* %10, i32 0, i32 0
  %11 = load i3, i3* %V5, align 1
  %sub = sub nsw i32 %call2, 1
  %part_set = call i14 @llvm.fpga.legacy.part.set.i14.i3(i14 %9, i3 %11, i32 0, i32 %sub)
  %12 = bitcast %"struct.ap_int_base<14, false>"* %agg.result to %"struct.ssdm_int<14, false>"*
  %V6 = getelementptr inbounds %"struct.ssdm_int<14, false>", %"struct.ssdm_int<14, false>"* %12, i32 0, i32 0
  store i14 %part_set, i14* %V6, align 2
  %13 = bitcast %"struct.ap_int_base<14, false>"* %agg.result to %"struct.ssdm_int<14, false>"*
  %V9 = getelementptr inbounds %"struct.ssdm_int<14, false>", %"struct.ssdm_int<14, false>"* %13, i32 0, i32 0
  %14 = load i14, i14* %V9, align 2
  %15 = bitcast %"struct.ap_int_base<11, false>"* %v1 to %"struct.ssdm_int<11, false>"*
  %V11 = getelementptr inbounds %"struct.ssdm_int<11, false>", %"struct.ssdm_int<11, false>"* %15, i32 0, i32 0
  %16 = load i11, i11* %V11, align 2
  %add = add nsw i32 %call, %call2
  %sub12 = sub nsw i32 %add, 1
  %part_set13 = call i14 @llvm.fpga.legacy.part.set.i14.i11(i14 %14, i11 %16, i32 %call2, i32 %sub12)
  %17 = bitcast %"struct.ap_int_base<14, false>"* %agg.result to %"struct.ssdm_int<14, false>"*
  %V15 = getelementptr inbounds %"struct.ssdm_int<14, false>", %"struct.ssdm_int<14, false>"* %17, i32 0, i32 0
  store i14 %part_set13, i14* %V15, align 2
  %18 = bitcast %"struct.ap_int_base<11, false>"* %v1 to i8*
  call void @llvm.lifetime.end.p0i8(i64 2, i8* %18) #100019
  %19 = bitcast %"struct.ap_int_base<3, false>"* %v2 to i8*
  call void @llvm.lifetime.end.p0i8(i64 1, i8* %19) #100019
  ret void
}

; Function Attrs: alwaysinline nounwind
define linkonce_odr void @_ZN11ap_int_baseILi14ELb0EEC2Ei(%"struct.ap_int_base<14, false>"* %this, i32 %op) unnamed_addr #100003 comdat align 2 !fpga.function.pragma !100997 {
entry:
  %0 = bitcast %"struct.ap_int_base<14, false>"* %this to %"struct.ssdm_int<14, false>"*
  %conv = trunc i32 %op to i14
  call void @_ZN8ssdm_intILi14ELb0EEC2EDq14_j(%"struct.ssdm_int<14, false>"* %0, i14 %conv)
  %conv2 = trunc i32 %op to i14
  %1 = bitcast %"struct.ap_int_base<14, false>"* %this to %"struct.ssdm_int<14, false>"*
  %V = getelementptr inbounds %"struct.ssdm_int<14, false>", %"struct.ssdm_int<14, false>"* %1, i32 0, i32 0
  store i14 %conv2, i14* %V, align 2
  ret void
}

; Function Attrs: alwaysinline nounwind
define linkonce_odr i32 @_ZNK11ap_int_baseILi11ELb0EE6lengthEv(%"struct.ap_int_base<11, false>"* %this) #100010 comdat align 2 !fpga.function.pragma !100997 {
entry:
  ret i32 11
}

; Function Attrs: nounwind readnone
declare i14 @llvm.fpga.legacy.part.set.i14.i3(i14, i3, i32, i32) #100009

; Function Attrs: nounwind readnone
declare i14 @llvm.fpga.legacy.part.set.i14.i11(i14, i11, i32, i32) #100009

; Function Attrs: alwaysinline nounwind
define linkonce_odr void @_ZN13ap_concat_refILi11E11ap_int_baseILi11ELb0EELi3ES0_ILi3ELb0EEEC2ERS1_RS2_(%"struct.ap_concat_ref<11, ap_int_base<11, false>, 3, ap_int_base<3, false> >"* %this, %"struct.ap_int_base<11, false>"* dereferenceable(2) %bv1, %"struct.ap_int_base<3, false>"* dereferenceable(1) %bv2) unnamed_addr #100003 comdat align 2 !fpga.function.pragma !100997 {
entry:
  %mbv1 = getelementptr inbounds %"struct.ap_concat_ref<11, ap_int_base<11, false>, 3, ap_int_base<3, false> >", %"struct.ap_concat_ref<11, ap_int_base<11, false>, 3, ap_int_base<3, false> >"* %this, i32 0, i32 0
  store %"struct.ap_int_base<11, false>"* %bv1, %"struct.ap_int_base<11, false>"** %mbv1, align 8
  %mbv2 = getelementptr inbounds %"struct.ap_concat_ref<11, ap_int_base<11, false>, 3, ap_int_base<3, false> >", %"struct.ap_concat_ref<11, ap_int_base<11, false>, 3, ap_int_base<3, false> >"* %this, i32 0, i32 1
  store %"struct.ap_int_base<3, false>"* %bv2, %"struct.ap_int_base<3, false>"** %mbv2, align 8
  ret void
}

; Function Attrs: alwaysinline nounwind
define linkonce_odr void @_ZN11ap_int_baseILi14ELb0EEC2ILi9ES_ILi9ELb0EELi3ES_ILi3ELb0EEEERK13ap_concat_refIXT_ET0_XT1_ET2_E(%"struct.ap_int_base<14, false>"* %this, %"struct.ap_concat_ref<9, ap_int_base<9, false>, 3, ap_int_base<3, false> >"* dereferenceable(16) %ref) unnamed_addr #100003 comdat align 2 !fpga.function.pragma !100997 {
entry:
  %tmp = alloca %"struct.ap_int_base<12, false>", align 2
  %0 = bitcast %"struct.ap_int_base<14, false>"* %this to %"struct.ssdm_int<14, false>"*
  call void @_ZN8ssdm_intILi14ELb0EEC2Ev(%"struct.ssdm_int<14, false>"* %0)
  %1 = bitcast %"struct.ap_int_base<12, false>"* %tmp to i8*
  call void @llvm.lifetime.start.p0i8(i64 2, i8* %1) #100019
  call void @_ZNK13ap_concat_refILi9E11ap_int_baseILi9ELb0EELi3ES0_ILi3ELb0EEE3getEv(%"struct.ap_int_base<12, false>"* sret %tmp, %"struct.ap_concat_ref<9, ap_int_base<9, false>, 3, ap_int_base<3, false> >"* %ref)
  %2 = bitcast %"struct.ap_int_base<12, false>"* %tmp to %"struct.ssdm_int<12, false>"*
  %V = getelementptr inbounds %"struct.ssdm_int<12, false>", %"struct.ssdm_int<12, false>"* %2, i32 0, i32 0
  %3 = load i12, i12* %V, align 2
  %conv = zext i12 %3 to i14
  %4 = bitcast %"struct.ap_int_base<14, false>"* %this to %"struct.ssdm_int<14, false>"*
  %V2 = getelementptr inbounds %"struct.ssdm_int<14, false>", %"struct.ssdm_int<14, false>"* %4, i32 0, i32 0
  store i14 %conv, i14* %V2, align 2
  %5 = bitcast %"struct.ap_int_base<12, false>"* %tmp to i8*
  call void @llvm.lifetime.end.p0i8(i64 2, i8* %5) #100019
  ret void
}

; Function Attrs: alwaysinline nounwind
define linkonce_odr void @_ZNK13ap_concat_refILi9E11ap_int_baseILi9ELb0EELi3ES0_ILi3ELb0EEE3getEv(%"struct.ap_int_base<12, false>"* noalias sret %agg.result, %"struct.ap_concat_ref<9, ap_int_base<9, false>, 3, ap_int_base<3, false> >"* %this) #100008 comdat align 2 !fpga.function.pragma !100997 {
entry:
  %v2 = alloca %"struct.ap_int_base<3, false>", align 1
  %v1 = alloca %"struct.ap_int_base<9, false>", align 2
  call void @_ZN11ap_int_baseILi12ELb0EEC2Ei(%"struct.ap_int_base<12, false>"* %agg.result, i32 0)
  %mbv1 = getelementptr inbounds %"struct.ap_concat_ref<9, ap_int_base<9, false>, 3, ap_int_base<3, false> >", %"struct.ap_concat_ref<9, ap_int_base<9, false>, 3, ap_int_base<3, false> >"* %this, i32 0, i32 0
  %0 = load %"struct.ap_int_base<9, false>"*, %"struct.ap_int_base<9, false>"** %mbv1, align 8
  %call = call i32 @_ZNK11ap_int_baseILi9ELb0EE6lengthEv(%"struct.ap_int_base<9, false>"* %0)
  %mbv2 = getelementptr inbounds %"struct.ap_concat_ref<9, ap_int_base<9, false>, 3, ap_int_base<3, false> >", %"struct.ap_concat_ref<9, ap_int_base<9, false>, 3, ap_int_base<3, false> >"* %this, i32 0, i32 1
  %1 = load %"struct.ap_int_base<3, false>"*, %"struct.ap_int_base<3, false>"** %mbv2, align 8
  %call2 = call i32 @_ZNK11ap_int_baseILi3ELb0EE6lengthEv(%"struct.ap_int_base<3, false>"* %1)
  %2 = bitcast %"struct.ap_int_base<3, false>"* %v2 to i8*
  call void @llvm.lifetime.start.p0i8(i64 1, i8* %2) #100019
  %mbv23 = getelementptr inbounds %"struct.ap_concat_ref<9, ap_int_base<9, false>, 3, ap_int_base<3, false> >", %"struct.ap_concat_ref<9, ap_int_base<9, false>, 3, ap_int_base<3, false> >"* %this, i32 0, i32 1
  %3 = load %"struct.ap_int_base<3, false>"*, %"struct.ap_int_base<3, false>"** %mbv23, align 8
